
main.elf:     file format elf32-littlearm


Disassembly of section .boot:

00010000 <_Reset>:
   10000:	e59f3018 	ldr	r3, [pc, #24]	@ 10020 <exit_program+0xc>
   10004:	e1a0d003 	mov	sp, r3
   10008:	e59f1014 	ldr	r1, [pc, #20]	@ 10024 <exit_program+0x10>
   1000c:	e12fff31 	blx	r1
   10010:	eaffffff 	b	10014 <exit_program>

00010014 <exit_program>:
   10014:	e3a00000 	mov	r0, #0
   10018:	e3a07001 	mov	r7, #1
   1001c:	ef000000 	svc	0x00000000
   10020:	00014b90 	muleq	r1, r0, fp
   10024:	0001013d 	andeq	r0, r1, sp, lsr r1

Disassembly of section .text:

00010030 <memchr>:
   10030:	f001 01ff 	and.w	r1, r1, #255	@ 0xff
   10034:	2a10      	cmp	r2, #16
   10036:	db2b      	blt.n	10090 <memchr+0x60>
   10038:	f010 0f07 	tst.w	r0, #7
   1003c:	d008      	beq.n	10050 <memchr+0x20>
   1003e:	f810 3b01 	ldrb.w	r3, [r0], #1
   10042:	3a01      	subs	r2, #1
   10044:	428b      	cmp	r3, r1
   10046:	d02d      	beq.n	100a4 <memchr+0x74>
   10048:	f010 0f07 	tst.w	r0, #7
   1004c:	b342      	cbz	r2, 100a0 <memchr+0x70>
   1004e:	d1f6      	bne.n	1003e <memchr+0xe>
   10050:	b4f0      	push	{r4, r5, r6, r7}
   10052:	ea41 2101 	orr.w	r1, r1, r1, lsl #8
   10056:	ea41 4101 	orr.w	r1, r1, r1, lsl #16
   1005a:	f022 0407 	bic.w	r4, r2, #7
   1005e:	f07f 0700 	mvns.w	r7, #0
   10062:	2300      	movs	r3, #0
   10064:	e8f0 5602 	ldrd	r5, r6, [r0], #8
   10068:	3c08      	subs	r4, #8
   1006a:	ea85 0501 	eor.w	r5, r5, r1
   1006e:	ea86 0601 	eor.w	r6, r6, r1
   10072:	fa85 f547 	uadd8	r5, r5, r7
   10076:	faa3 f587 	sel	r5, r3, r7
   1007a:	fa86 f647 	uadd8	r6, r6, r7
   1007e:	faa5 f687 	sel	r6, r5, r7
   10082:	b98e      	cbnz	r6, 100a8 <memchr+0x78>
   10084:	d1ee      	bne.n	10064 <memchr+0x34>
   10086:	bcf0      	pop	{r4, r5, r6, r7}
   10088:	f001 01ff 	and.w	r1, r1, #255	@ 0xff
   1008c:	f002 0207 	and.w	r2, r2, #7
   10090:	b132      	cbz	r2, 100a0 <memchr+0x70>
   10092:	f810 3b01 	ldrb.w	r3, [r0], #1
   10096:	3a01      	subs	r2, #1
   10098:	ea83 0301 	eor.w	r3, r3, r1
   1009c:	b113      	cbz	r3, 100a4 <memchr+0x74>
   1009e:	d1f8      	bne.n	10092 <memchr+0x62>
   100a0:	2000      	movs	r0, #0
   100a2:	4770      	bx	lr
   100a4:	3801      	subs	r0, #1
   100a6:	4770      	bx	lr
   100a8:	2d00      	cmp	r5, #0
   100aa:	bf06      	itte	eq
   100ac:	4635      	moveq	r5, r6
   100ae:	3803      	subeq	r0, #3
   100b0:	3807      	subne	r0, #7
   100b2:	f015 0f01 	tst.w	r5, #1
   100b6:	d107      	bne.n	100c8 <memchr+0x98>
   100b8:	3001      	adds	r0, #1
   100ba:	f415 7f80 	tst.w	r5, #256	@ 0x100
   100be:	bf02      	ittt	eq
   100c0:	3001      	addeq	r0, #1
   100c2:	f415 3fc0 	tsteq.w	r5, #98304	@ 0x18000
   100c6:	3001      	addeq	r0, #1
   100c8:	bcf0      	pop	{r4, r5, r6, r7}
   100ca:	3801      	subs	r0, #1
   100cc:	4770      	bx	lr
   100ce:	bf00      	nop

000100d0 <strlen>:
   100d0:	4603      	mov	r3, r0
   100d2:	f813 2b01 	ldrb.w	r2, [r3], #1
   100d6:	2a00      	cmp	r2, #0
   100d8:	d1fb      	bne.n	100d2 <strlen+0x2>
   100da:	1a18      	subs	r0, r3, r0
   100dc:	3801      	subs	r0, #1
   100de:	4770      	bx	lr

000100e0 <strcmp>:
   100e0:	f810 2b01 	ldrb.w	r2, [r0], #1
   100e4:	f811 3b01 	ldrb.w	r3, [r1], #1
   100e8:	2a01      	cmp	r2, #1
   100ea:	bf28      	it	cs
   100ec:	429a      	cmpcs	r2, r3
   100ee:	d0f7      	beq.n	100e0 <strcmp>
   100f0:	1ad0      	subs	r0, r2, r3
   100f2:	4770      	bx	lr

000100f4 <write>:
   100f4:	b500      	push	{lr}
   100f6:	b085      	sub	sp, #20
   100f8:	9003      	str	r0, [sp, #12]
   100fa:	9102      	str	r1, [sp, #8]
   100fc:	9201      	str	r2, [sp, #4]
   100fe:	9a01      	ldr	r2, [sp, #4]
   10100:	9902      	ldr	r1, [sp, #8]
   10102:	9803      	ldr	r0, [sp, #12]
   10104:	f000 f805 	bl	10112 <_write>
   10108:	4603      	mov	r3, r0
   1010a:	4618      	mov	r0, r3
   1010c:	b005      	add	sp, #20
   1010e:	f85d fb04 	ldr.w	pc, [sp], #4

00010112 <_write>:
   10112:	b4b0      	push	{r4, r5, r7}
   10114:	b087      	sub	sp, #28
   10116:	9003      	str	r0, [sp, #12]
   10118:	9102      	str	r1, [sp, #8]
   1011a:	9201      	str	r2, [sp, #4]
   1011c:	9b03      	ldr	r3, [sp, #12]
   1011e:	9c02      	ldr	r4, [sp, #8]
   10120:	9d01      	ldr	r5, [sp, #4]
   10122:	4618      	mov	r0, r3
   10124:	4621      	mov	r1, r4
   10126:	462a      	mov	r2, r5
   10128:	f04f 0704 	mov.w	r7, #4
   1012c:	df00      	svc	0
   1012e:	4603      	mov	r3, r0
   10130:	9305      	str	r3, [sp, #20]
   10132:	9b05      	ldr	r3, [sp, #20]
   10134:	4618      	mov	r0, r3
   10136:	b007      	add	sp, #28
   10138:	bcb0      	pop	{r4, r5, r7}
   1013a:	4770      	bx	lr

0001013c <main>:
   1013c:	e92d 43b0 	stmdb	sp!, {r4, r5, r7, r8, r9, lr}
   10140:	b08c      	sub	sp, #48	@ 0x30
   10142:	af06      	add	r7, sp, #24
   10144:	2301      	movs	r3, #1
   10146:	617b      	str	r3, [r7, #20]
   10148:	2302      	movs	r3, #2
   1014a:	613b      	str	r3, [r7, #16]
   1014c:	2300      	movs	r3, #0
   1014e:	60fb      	str	r3, [r7, #12]
   10150:	697a      	ldr	r2, [r7, #20]
   10152:	693b      	ldr	r3, [r7, #16]
   10154:	4413      	add	r3, r2
   10156:	60fb      	str	r3, [r7, #12]
   10158:	697a      	ldr	r2, [r7, #20]
   1015a:	68fb      	ldr	r3, [r7, #12]
   1015c:	4413      	add	r3, r2
   1015e:	617b      	str	r3, [r7, #20]
   10160:	4b1b      	ldr	r3, [pc, #108]	@ (101d0 <main+0x94>)
   10162:	60bb      	str	r3, [r7, #8]
   10164:	4b1b      	ldr	r3, [pc, #108]	@ (101d4 <main+0x98>)
   10166:	607b      	str	r3, [r7, #4]
   10168:	f04f 0300 	mov.w	r3, #0
   1016c:	603b      	str	r3, [r7, #0]
   1016e:	ed97 7a02 	vldr	s14, [r7, #8]
   10172:	edd7 7a01 	vldr	s15, [r7, #4]
   10176:	ee77 7a27 	vadd.f32	s15, s14, s15
   1017a:	edc7 7a00 	vstr	s15, [r7]
   1017e:	ed97 7a01 	vldr	s14, [r7, #4]
   10182:	edd7 7a00 	vldr	s15, [r7]
   10186:	ee77 7a27 	vadd.f32	s15, s14, s15
   1018a:	edc7 7a01 	vstr	s15, [r7, #4]
   1018e:	68b8      	ldr	r0, [r7, #8]
   10190:	f000 fab2 	bl	106f8 <__aeabi_f2d>
   10194:	4604      	mov	r4, r0
   10196:	460d      	mov	r5, r1
   10198:	6878      	ldr	r0, [r7, #4]
   1019a:	f000 faad 	bl	106f8 <__aeabi_f2d>
   1019e:	4680      	mov	r8, r0
   101a0:	4689      	mov	r9, r1
   101a2:	6838      	ldr	r0, [r7, #0]
   101a4:	f000 faa8 	bl	106f8 <__aeabi_f2d>
   101a8:	4602      	mov	r2, r0
   101aa:	460b      	mov	r3, r1
   101ac:	e9cd 2304 	strd	r2, r3, [sp, #16]
   101b0:	e9cd 8902 	strd	r8, r9, [sp, #8]
   101b4:	e9cd 4500 	strd	r4, r5, [sp]
   101b8:	68fb      	ldr	r3, [r7, #12]
   101ba:	693a      	ldr	r2, [r7, #16]
   101bc:	6979      	ldr	r1, [r7, #20]
   101be:	4806      	ldr	r0, [pc, #24]	@ (101d8 <main+0x9c>)
   101c0:	f003 fee4 	bl	13f8c <iprintf>
   101c4:	2300      	movs	r3, #0
   101c6:	4618      	mov	r0, r3
   101c8:	3718      	adds	r7, #24
   101ca:	46bd      	mov	sp, r7
   101cc:	e8bd 83b0 	ldmia.w	sp!, {r4, r5, r7, r8, r9, pc}
   101d0:	4049999a 	umaalmi	r9, r9, sl, r9
   101d4:	3f851eb8 	svccc	0x00851eb8
   101d8:	0001447c 	andeq	r4, r1, ip, ror r4
   101dc:	b570      	push	{r4, r5, r6, lr}
   101de:	f04f 0cff 	mov.w	ip, #255	@ 0xff
   101e2:	f44c 6ce0 	orr.w	ip, ip, #1792	@ 0x700
   101e6:	ea1c 5411 	ands.w	r4, ip, r1, lsr #20
   101ea:	bf1d      	ittte	ne
   101ec:	ea1c 5513 	andsne.w	r5, ip, r3, lsr #20
   101f0:	ea94 0f0c 	teqne	r4, ip
   101f4:	ea95 0f0c 	teqne	r5, ip
   101f8:	f000 f8de 	bleq	103b8 <main+0x27c>
   101fc:	442c      	add	r4, r5
   101fe:	ea81 0603 	eor.w	r6, r1, r3
   10202:	ea21 514c 	bic.w	r1, r1, ip, lsl #21
   10206:	ea23 534c 	bic.w	r3, r3, ip, lsl #21
   1020a:	ea50 3501 	orrs.w	r5, r0, r1, lsl #12
   1020e:	bf18      	it	ne
   10210:	ea52 3503 	orrsne.w	r5, r2, r3, lsl #12
   10214:	f441 1180 	orr.w	r1, r1, #1048576	@ 0x100000
   10218:	f443 1380 	orr.w	r3, r3, #1048576	@ 0x100000
   1021c:	d038      	beq.n	10290 <main+0x154>
   1021e:	fba0 ce02 	umull	ip, lr, r0, r2
   10222:	f04f 0500 	mov.w	r5, #0
   10226:	fbe1 e502 	umlal	lr, r5, r1, r2
   1022a:	f006 4200 	and.w	r2, r6, #2147483648	@ 0x80000000
   1022e:	fbe0 e503 	umlal	lr, r5, r0, r3
   10232:	f04f 0600 	mov.w	r6, #0
   10236:	fbe1 5603 	umlal	r5, r6, r1, r3
   1023a:	f09c 0f00 	teq	ip, #0
   1023e:	bf18      	it	ne
   10240:	f04e 0e01 	orrne.w	lr, lr, #1
   10244:	f1a4 04ff 	sub.w	r4, r4, #255	@ 0xff
   10248:	f5b6 7f00 	cmp.w	r6, #512	@ 0x200
   1024c:	f564 7440 	sbc.w	r4, r4, #768	@ 0x300
   10250:	d204      	bcs.n	1025c <main+0x120>
   10252:	ea5f 0e4e 	movs.w	lr, lr, lsl #1
   10256:	416d      	adcs	r5, r5
   10258:	eb46 0606 	adc.w	r6, r6, r6
   1025c:	ea42 21c6 	orr.w	r1, r2, r6, lsl #11
   10260:	ea41 5155 	orr.w	r1, r1, r5, lsr #21
   10264:	ea4f 20c5 	mov.w	r0, r5, lsl #11
   10268:	ea40 505e 	orr.w	r0, r0, lr, lsr #21
   1026c:	ea4f 2ece 	mov.w	lr, lr, lsl #11
   10270:	f1b4 0cfd 	subs.w	ip, r4, #253	@ 0xfd
   10274:	bf88      	it	hi
   10276:	f5bc 6fe0 	cmphi.w	ip, #1792	@ 0x700
   1027a:	d81e      	bhi.n	102ba <main+0x17e>
   1027c:	f1be 4f00 	cmp.w	lr, #2147483648	@ 0x80000000
   10280:	bf08      	it	eq
   10282:	ea5f 0e50 	movseq.w	lr, r0, lsr #1
   10286:	f150 0000 	adcs.w	r0, r0, #0
   1028a:	eb41 5104 	adc.w	r1, r1, r4, lsl #20
   1028e:	bd70      	pop	{r4, r5, r6, pc}
   10290:	f006 4600 	and.w	r6, r6, #2147483648	@ 0x80000000
   10294:	ea46 0101 	orr.w	r1, r6, r1
   10298:	ea40 0002 	orr.w	r0, r0, r2
   1029c:	ea81 0103 	eor.w	r1, r1, r3
   102a0:	ebb4 045c 	subs.w	r4, r4, ip, lsr #1
   102a4:	bfc2      	ittt	gt
   102a6:	ebd4 050c 	rsbsgt	r5, r4, ip
   102aa:	ea41 5104 	orrgt.w	r1, r1, r4, lsl #20
   102ae:	bd70      	popgt	{r4, r5, r6, pc}
   102b0:	f441 1180 	orr.w	r1, r1, #1048576	@ 0x100000
   102b4:	f04f 0e00 	mov.w	lr, #0
   102b8:	3c01      	subs	r4, #1
   102ba:	f300 80ab 	bgt.w	10414 <main+0x2d8>
   102be:	f114 0f36 	cmn.w	r4, #54	@ 0x36
   102c2:	bfde      	ittt	le
   102c4:	2000      	movle	r0, #0
   102c6:	f001 4100 	andle.w	r1, r1, #2147483648	@ 0x80000000
   102ca:	bd70      	pople	{r4, r5, r6, pc}
   102cc:	f1c4 0400 	rsb	r4, r4, #0
   102d0:	3c20      	subs	r4, #32
   102d2:	da35      	bge.n	10340 <main+0x204>
   102d4:	340c      	adds	r4, #12
   102d6:	dc1b      	bgt.n	10310 <main+0x1d4>
   102d8:	f104 0414 	add.w	r4, r4, #20
   102dc:	f1c4 0520 	rsb	r5, r4, #32
   102e0:	fa00 f305 	lsl.w	r3, r0, r5
   102e4:	fa20 f004 	lsr.w	r0, r0, r4
   102e8:	fa01 f205 	lsl.w	r2, r1, r5
   102ec:	ea40 0002 	orr.w	r0, r0, r2
   102f0:	f001 4200 	and.w	r2, r1, #2147483648	@ 0x80000000
   102f4:	f021 4100 	bic.w	r1, r1, #2147483648	@ 0x80000000
   102f8:	eb10 70d3 	adds.w	r0, r0, r3, lsr #31
   102fc:	fa21 f604 	lsr.w	r6, r1, r4
   10300:	eb42 0106 	adc.w	r1, r2, r6
   10304:	ea5e 0e43 	orrs.w	lr, lr, r3, lsl #1
   10308:	bf08      	it	eq
   1030a:	ea20 70d3 	biceq.w	r0, r0, r3, lsr #31
   1030e:	bd70      	pop	{r4, r5, r6, pc}
   10310:	f1c4 040c 	rsb	r4, r4, #12
   10314:	f1c4 0520 	rsb	r5, r4, #32
   10318:	fa00 f304 	lsl.w	r3, r0, r4
   1031c:	fa20 f005 	lsr.w	r0, r0, r5
   10320:	fa01 f204 	lsl.w	r2, r1, r4
   10324:	ea40 0002 	orr.w	r0, r0, r2
   10328:	f001 4100 	and.w	r1, r1, #2147483648	@ 0x80000000
   1032c:	eb10 70d3 	adds.w	r0, r0, r3, lsr #31
   10330:	f141 0100 	adc.w	r1, r1, #0
   10334:	ea5e 0e43 	orrs.w	lr, lr, r3, lsl #1
   10338:	bf08      	it	eq
   1033a:	ea20 70d3 	biceq.w	r0, r0, r3, lsr #31
   1033e:	bd70      	pop	{r4, r5, r6, pc}
   10340:	f1c4 0520 	rsb	r5, r4, #32
   10344:	fa00 f205 	lsl.w	r2, r0, r5
   10348:	ea4e 0e02 	orr.w	lr, lr, r2
   1034c:	fa20 f304 	lsr.w	r3, r0, r4
   10350:	fa01 f205 	lsl.w	r2, r1, r5
   10354:	ea43 0302 	orr.w	r3, r3, r2
   10358:	fa21 f004 	lsr.w	r0, r1, r4
   1035c:	f001 4100 	and.w	r1, r1, #2147483648	@ 0x80000000
   10360:	fa21 f204 	lsr.w	r2, r1, r4
   10364:	ea20 0002 	bic.w	r0, r0, r2
   10368:	eb00 70d3 	add.w	r0, r0, r3, lsr #31
   1036c:	ea5e 0e43 	orrs.w	lr, lr, r3, lsl #1
   10370:	bf08      	it	eq
   10372:	ea20 70d3 	biceq.w	r0, r0, r3, lsr #31
   10376:	bd70      	pop	{r4, r5, r6, pc}
   10378:	f094 0f00 	teq	r4, #0
   1037c:	d10f      	bne.n	1039e <main+0x262>
   1037e:	f001 4600 	and.w	r6, r1, #2147483648	@ 0x80000000
   10382:	0040      	lsls	r0, r0, #1
   10384:	eb41 0101 	adc.w	r1, r1, r1
   10388:	f411 1f80 	tst.w	r1, #1048576	@ 0x100000
   1038c:	bf08      	it	eq
   1038e:	3c01      	subeq	r4, #1
   10390:	d0f7      	beq.n	10382 <main+0x246>
   10392:	ea41 0106 	orr.w	r1, r1, r6
   10396:	f095 0f00 	teq	r5, #0
   1039a:	bf18      	it	ne
   1039c:	4770      	bxne	lr
   1039e:	f003 4600 	and.w	r6, r3, #2147483648	@ 0x80000000
   103a2:	0052      	lsls	r2, r2, #1
   103a4:	eb43 0303 	adc.w	r3, r3, r3
   103a8:	f413 1f80 	tst.w	r3, #1048576	@ 0x100000
   103ac:	bf08      	it	eq
   103ae:	3d01      	subeq	r5, #1
   103b0:	d0f7      	beq.n	103a2 <main+0x266>
   103b2:	ea43 0306 	orr.w	r3, r3, r6
   103b6:	4770      	bx	lr
   103b8:	ea94 0f0c 	teq	r4, ip
   103bc:	ea0c 5513 	and.w	r5, ip, r3, lsr #20
   103c0:	bf18      	it	ne
   103c2:	ea95 0f0c 	teqne	r5, ip
   103c6:	d00c      	beq.n	103e2 <main+0x2a6>
   103c8:	ea50 0641 	orrs.w	r6, r0, r1, lsl #1
   103cc:	bf18      	it	ne
   103ce:	ea52 0643 	orrsne.w	r6, r2, r3, lsl #1
   103d2:	d1d1      	bne.n	10378 <main+0x23c>
   103d4:	ea81 0103 	eor.w	r1, r1, r3
   103d8:	f001 4100 	and.w	r1, r1, #2147483648	@ 0x80000000
   103dc:	f04f 0000 	mov.w	r0, #0
   103e0:	bd70      	pop	{r4, r5, r6, pc}
   103e2:	ea50 0641 	orrs.w	r6, r0, r1, lsl #1
   103e6:	bf06      	itte	eq
   103e8:	4610      	moveq	r0, r2
   103ea:	4619      	moveq	r1, r3
   103ec:	ea52 0643 	orrsne.w	r6, r2, r3, lsl #1
   103f0:	d019      	beq.n	10426 <main+0x2ea>
   103f2:	ea94 0f0c 	teq	r4, ip
   103f6:	d102      	bne.n	103fe <main+0x2c2>
   103f8:	ea50 3601 	orrs.w	r6, r0, r1, lsl #12
   103fc:	d113      	bne.n	10426 <main+0x2ea>
   103fe:	ea95 0f0c 	teq	r5, ip
   10402:	d105      	bne.n	10410 <main+0x2d4>
   10404:	ea52 3603 	orrs.w	r6, r2, r3, lsl #12
   10408:	bf1c      	itt	ne
   1040a:	4610      	movne	r0, r2
   1040c:	4619      	movne	r1, r3
   1040e:	d10a      	bne.n	10426 <main+0x2ea>
   10410:	ea81 0103 	eor.w	r1, r1, r3
   10414:	f001 4100 	and.w	r1, r1, #2147483648	@ 0x80000000
   10418:	f041 41fe 	orr.w	r1, r1, #2130706432	@ 0x7f000000
   1041c:	f441 0170 	orr.w	r1, r1, #15728640	@ 0xf00000
   10420:	f04f 0000 	mov.w	r0, #0
   10424:	bd70      	pop	{r4, r5, r6, pc}
   10426:	f041 41fe 	orr.w	r1, r1, #2130706432	@ 0x7f000000
   1042a:	f441 0178 	orr.w	r1, r1, #16252928	@ 0xf80000
   1042e:	bd70      	pop	{r4, r5, r6, pc}

00010430 <__aeabi_drsub>:
   10430:	f081 4100 	eor.w	r1, r1, #2147483648	@ 0x80000000
   10434:	e002      	b.n	1043c <__adddf3>
   10436:	bf00      	nop

00010438 <__aeabi_dsub>:
   10438:	f083 4300 	eor.w	r3, r3, #2147483648	@ 0x80000000

0001043c <__adddf3>:
   1043c:	b530      	push	{r4, r5, lr}
   1043e:	ea4f 0441 	mov.w	r4, r1, lsl #1
   10442:	ea4f 0543 	mov.w	r5, r3, lsl #1
   10446:	ea94 0f05 	teq	r4, r5
   1044a:	bf08      	it	eq
   1044c:	ea90 0f02 	teqeq	r0, r2
   10450:	bf1f      	itttt	ne
   10452:	ea54 0c00 	orrsne.w	ip, r4, r0
   10456:	ea55 0c02 	orrsne.w	ip, r5, r2
   1045a:	ea7f 5c64 	mvnsne.w	ip, r4, asr #21
   1045e:	ea7f 5c65 	mvnsne.w	ip, r5, asr #21
   10462:	f000 80e2 	beq.w	1062a <__adddf3+0x1ee>
   10466:	ea4f 5454 	mov.w	r4, r4, lsr #21
   1046a:	ebd4 5555 	rsbs	r5, r4, r5, lsr #21
   1046e:	bfb8      	it	lt
   10470:	426d      	neglt	r5, r5
   10472:	dd0c      	ble.n	1048e <__adddf3+0x52>
   10474:	442c      	add	r4, r5
   10476:	ea80 0202 	eor.w	r2, r0, r2
   1047a:	ea81 0303 	eor.w	r3, r1, r3
   1047e:	ea82 0000 	eor.w	r0, r2, r0
   10482:	ea83 0101 	eor.w	r1, r3, r1
   10486:	ea80 0202 	eor.w	r2, r0, r2
   1048a:	ea81 0303 	eor.w	r3, r1, r3
   1048e:	2d36      	cmp	r5, #54	@ 0x36
   10490:	bf88      	it	hi
   10492:	bd30      	pophi	{r4, r5, pc}
   10494:	f011 4f00 	tst.w	r1, #2147483648	@ 0x80000000
   10498:	ea4f 3101 	mov.w	r1, r1, lsl #12
   1049c:	f44f 1c80 	mov.w	ip, #1048576	@ 0x100000
   104a0:	ea4c 3111 	orr.w	r1, ip, r1, lsr #12
   104a4:	d002      	beq.n	104ac <__adddf3+0x70>
   104a6:	4240      	negs	r0, r0
   104a8:	eb61 0141 	sbc.w	r1, r1, r1, lsl #1
   104ac:	f013 4f00 	tst.w	r3, #2147483648	@ 0x80000000
   104b0:	ea4f 3303 	mov.w	r3, r3, lsl #12
   104b4:	ea4c 3313 	orr.w	r3, ip, r3, lsr #12
   104b8:	d002      	beq.n	104c0 <__adddf3+0x84>
   104ba:	4252      	negs	r2, r2
   104bc:	eb63 0343 	sbc.w	r3, r3, r3, lsl #1
   104c0:	ea94 0f05 	teq	r4, r5
   104c4:	f000 80a7 	beq.w	10616 <__adddf3+0x1da>
   104c8:	f1a4 0401 	sub.w	r4, r4, #1
   104cc:	f1d5 0e20 	rsbs	lr, r5, #32
   104d0:	db0d      	blt.n	104ee <__adddf3+0xb2>
   104d2:	fa02 fc0e 	lsl.w	ip, r2, lr
   104d6:	fa22 f205 	lsr.w	r2, r2, r5
   104da:	1880      	adds	r0, r0, r2
   104dc:	f141 0100 	adc.w	r1, r1, #0
   104e0:	fa03 f20e 	lsl.w	r2, r3, lr
   104e4:	1880      	adds	r0, r0, r2
   104e6:	fa43 f305 	asr.w	r3, r3, r5
   104ea:	4159      	adcs	r1, r3
   104ec:	e00e      	b.n	1050c <__adddf3+0xd0>
   104ee:	f1a5 0520 	sub.w	r5, r5, #32
   104f2:	f10e 0e20 	add.w	lr, lr, #32
   104f6:	2a01      	cmp	r2, #1
   104f8:	fa03 fc0e 	lsl.w	ip, r3, lr
   104fc:	bf28      	it	cs
   104fe:	f04c 0c02 	orrcs.w	ip, ip, #2
   10502:	fa43 f305 	asr.w	r3, r3, r5
   10506:	18c0      	adds	r0, r0, r3
   10508:	eb51 71e3 	adcs.w	r1, r1, r3, asr #31
   1050c:	f001 4500 	and.w	r5, r1, #2147483648	@ 0x80000000
   10510:	d507      	bpl.n	10522 <__adddf3+0xe6>
   10512:	f04f 0e00 	mov.w	lr, #0
   10516:	f1dc 0c00 	rsbs	ip, ip, #0
   1051a:	eb7e 0000 	sbcs.w	r0, lr, r0
   1051e:	eb6e 0101 	sbc.w	r1, lr, r1
   10522:	f5b1 1f80 	cmp.w	r1, #1048576	@ 0x100000
   10526:	d31b      	bcc.n	10560 <__adddf3+0x124>
   10528:	f5b1 1f00 	cmp.w	r1, #2097152	@ 0x200000
   1052c:	d30c      	bcc.n	10548 <__adddf3+0x10c>
   1052e:	0849      	lsrs	r1, r1, #1
   10530:	ea5f 0030 	movs.w	r0, r0, rrx
   10534:	ea4f 0c3c 	mov.w	ip, ip, rrx
   10538:	f104 0401 	add.w	r4, r4, #1
   1053c:	ea4f 5244 	mov.w	r2, r4, lsl #21
   10540:	f512 0f80 	cmn.w	r2, #4194304	@ 0x400000
   10544:	f080 809a 	bcs.w	1067c <__adddf3+0x240>
   10548:	f1bc 4f00 	cmp.w	ip, #2147483648	@ 0x80000000
   1054c:	bf08      	it	eq
   1054e:	ea5f 0c50 	movseq.w	ip, r0, lsr #1
   10552:	f150 0000 	adcs.w	r0, r0, #0
   10556:	eb41 5104 	adc.w	r1, r1, r4, lsl #20
   1055a:	ea41 0105 	orr.w	r1, r1, r5
   1055e:	bd30      	pop	{r4, r5, pc}
   10560:	ea5f 0c4c 	movs.w	ip, ip, lsl #1
   10564:	4140      	adcs	r0, r0
   10566:	eb41 0101 	adc.w	r1, r1, r1
   1056a:	3c01      	subs	r4, #1
   1056c:	bf28      	it	cs
   1056e:	f5b1 1f80 	cmpcs.w	r1, #1048576	@ 0x100000
   10572:	d2e9      	bcs.n	10548 <__adddf3+0x10c>
   10574:	f091 0f00 	teq	r1, #0
   10578:	bf04      	itt	eq
   1057a:	4601      	moveq	r1, r0
   1057c:	2000      	moveq	r0, #0
   1057e:	fab1 f381 	clz	r3, r1
   10582:	bf08      	it	eq
   10584:	3320      	addeq	r3, #32
   10586:	f1a3 030b 	sub.w	r3, r3, #11
   1058a:	f1b3 0220 	subs.w	r2, r3, #32
   1058e:	da0c      	bge.n	105aa <__adddf3+0x16e>
   10590:	320c      	adds	r2, #12
   10592:	dd08      	ble.n	105a6 <__adddf3+0x16a>
   10594:	f102 0c14 	add.w	ip, r2, #20
   10598:	f1c2 020c 	rsb	r2, r2, #12
   1059c:	fa01 f00c 	lsl.w	r0, r1, ip
   105a0:	fa21 f102 	lsr.w	r1, r1, r2
   105a4:	e00c      	b.n	105c0 <__adddf3+0x184>
   105a6:	f102 0214 	add.w	r2, r2, #20
   105aa:	bfd8      	it	le
   105ac:	f1c2 0c20 	rsble	ip, r2, #32
   105b0:	fa01 f102 	lsl.w	r1, r1, r2
   105b4:	fa20 fc0c 	lsr.w	ip, r0, ip
   105b8:	bfdc      	itt	le
   105ba:	ea41 010c 	orrle.w	r1, r1, ip
   105be:	4090      	lslle	r0, r2
   105c0:	1ae4      	subs	r4, r4, r3
   105c2:	bfa2      	ittt	ge
   105c4:	eb01 5104 	addge.w	r1, r1, r4, lsl #20
   105c8:	4329      	orrge	r1, r5
   105ca:	bd30      	popge	{r4, r5, pc}
   105cc:	ea6f 0404 	mvn.w	r4, r4
   105d0:	3c1f      	subs	r4, #31
   105d2:	da1c      	bge.n	1060e <__adddf3+0x1d2>
   105d4:	340c      	adds	r4, #12
   105d6:	dc0e      	bgt.n	105f6 <__adddf3+0x1ba>
   105d8:	f104 0414 	add.w	r4, r4, #20
   105dc:	f1c4 0220 	rsb	r2, r4, #32
   105e0:	fa20 f004 	lsr.w	r0, r0, r4
   105e4:	fa01 f302 	lsl.w	r3, r1, r2
   105e8:	ea40 0003 	orr.w	r0, r0, r3
   105ec:	fa21 f304 	lsr.w	r3, r1, r4
   105f0:	ea45 0103 	orr.w	r1, r5, r3
   105f4:	bd30      	pop	{r4, r5, pc}
   105f6:	f1c4 040c 	rsb	r4, r4, #12
   105fa:	f1c4 0220 	rsb	r2, r4, #32
   105fe:	fa20 f002 	lsr.w	r0, r0, r2
   10602:	fa01 f304 	lsl.w	r3, r1, r4
   10606:	ea40 0003 	orr.w	r0, r0, r3
   1060a:	4629      	mov	r1, r5
   1060c:	bd30      	pop	{r4, r5, pc}
   1060e:	fa21 f004 	lsr.w	r0, r1, r4
   10612:	4629      	mov	r1, r5
   10614:	bd30      	pop	{r4, r5, pc}
   10616:	f094 0f00 	teq	r4, #0
   1061a:	f483 1380 	eor.w	r3, r3, #1048576	@ 0x100000
   1061e:	bf06      	itte	eq
   10620:	f481 1180 	eoreq.w	r1, r1, #1048576	@ 0x100000
   10624:	3401      	addeq	r4, #1
   10626:	3d01      	subne	r5, #1
   10628:	e74e      	b.n	104c8 <__adddf3+0x8c>
   1062a:	ea7f 5c64 	mvns.w	ip, r4, asr #21
   1062e:	bf18      	it	ne
   10630:	ea7f 5c65 	mvnsne.w	ip, r5, asr #21
   10634:	d029      	beq.n	1068a <__adddf3+0x24e>
   10636:	ea94 0f05 	teq	r4, r5
   1063a:	bf08      	it	eq
   1063c:	ea90 0f02 	teqeq	r0, r2
   10640:	d005      	beq.n	1064e <__adddf3+0x212>
   10642:	ea54 0c00 	orrs.w	ip, r4, r0
   10646:	bf04      	itt	eq
   10648:	4619      	moveq	r1, r3
   1064a:	4610      	moveq	r0, r2
   1064c:	bd30      	pop	{r4, r5, pc}
   1064e:	ea91 0f03 	teq	r1, r3
   10652:	bf1e      	ittt	ne
   10654:	2100      	movne	r1, #0
   10656:	2000      	movne	r0, #0
   10658:	bd30      	popne	{r4, r5, pc}
   1065a:	ea5f 5c54 	movs.w	ip, r4, lsr #21
   1065e:	d105      	bne.n	1066c <__adddf3+0x230>
   10660:	0040      	lsls	r0, r0, #1
   10662:	4149      	adcs	r1, r1
   10664:	bf28      	it	cs
   10666:	f041 4100 	orrcs.w	r1, r1, #2147483648	@ 0x80000000
   1066a:	bd30      	pop	{r4, r5, pc}
   1066c:	f514 0480 	adds.w	r4, r4, #4194304	@ 0x400000
   10670:	bf3c      	itt	cc
   10672:	f501 1180 	addcc.w	r1, r1, #1048576	@ 0x100000
   10676:	bd30      	popcc	{r4, r5, pc}
   10678:	f001 4500 	and.w	r5, r1, #2147483648	@ 0x80000000
   1067c:	f045 41fe 	orr.w	r1, r5, #2130706432	@ 0x7f000000
   10680:	f441 0170 	orr.w	r1, r1, #15728640	@ 0xf00000
   10684:	f04f 0000 	mov.w	r0, #0
   10688:	bd30      	pop	{r4, r5, pc}
   1068a:	ea7f 5c64 	mvns.w	ip, r4, asr #21
   1068e:	bf1a      	itte	ne
   10690:	4619      	movne	r1, r3
   10692:	4610      	movne	r0, r2
   10694:	ea7f 5c65 	mvnseq.w	ip, r5, asr #21
   10698:	bf1c      	itt	ne
   1069a:	460b      	movne	r3, r1
   1069c:	4602      	movne	r2, r0
   1069e:	ea50 3401 	orrs.w	r4, r0, r1, lsl #12
   106a2:	bf06      	itte	eq
   106a4:	ea52 3503 	orrseq.w	r5, r2, r3, lsl #12
   106a8:	ea91 0f03 	teqeq	r1, r3
   106ac:	f441 2100 	orrne.w	r1, r1, #524288	@ 0x80000
   106b0:	bd30      	pop	{r4, r5, pc}
   106b2:	bf00      	nop

000106b4 <__aeabi_ui2d>:
   106b4:	f090 0f00 	teq	r0, #0
   106b8:	bf04      	itt	eq
   106ba:	2100      	moveq	r1, #0
   106bc:	4770      	bxeq	lr
   106be:	b530      	push	{r4, r5, lr}
   106c0:	f44f 6480 	mov.w	r4, #1024	@ 0x400
   106c4:	f104 0432 	add.w	r4, r4, #50	@ 0x32
   106c8:	f04f 0500 	mov.w	r5, #0
   106cc:	f04f 0100 	mov.w	r1, #0
   106d0:	e750      	b.n	10574 <__adddf3+0x138>
   106d2:	bf00      	nop

000106d4 <__aeabi_i2d>:
   106d4:	f090 0f00 	teq	r0, #0
   106d8:	bf04      	itt	eq
   106da:	2100      	moveq	r1, #0
   106dc:	4770      	bxeq	lr
   106de:	b530      	push	{r4, r5, lr}
   106e0:	f44f 6480 	mov.w	r4, #1024	@ 0x400
   106e4:	f104 0432 	add.w	r4, r4, #50	@ 0x32
   106e8:	f010 4500 	ands.w	r5, r0, #2147483648	@ 0x80000000
   106ec:	bf48      	it	mi
   106ee:	4240      	negmi	r0, r0
   106f0:	f04f 0100 	mov.w	r1, #0
   106f4:	e73e      	b.n	10574 <__adddf3+0x138>
   106f6:	bf00      	nop

000106f8 <__aeabi_f2d>:
   106f8:	0042      	lsls	r2, r0, #1
   106fa:	ea4f 01e2 	mov.w	r1, r2, asr #3
   106fe:	ea4f 0131 	mov.w	r1, r1, rrx
   10702:	ea4f 7002 	mov.w	r0, r2, lsl #28
   10706:	bf1f      	itttt	ne
   10708:	f012 437f 	andsne.w	r3, r2, #4278190080	@ 0xff000000
   1070c:	f093 4f7f 	teqne	r3, #4278190080	@ 0xff000000
   10710:	f081 5160 	eorne.w	r1, r1, #939524096	@ 0x38000000
   10714:	4770      	bxne	lr
   10716:	f032 427f 	bics.w	r2, r2, #4278190080	@ 0xff000000
   1071a:	bf08      	it	eq
   1071c:	4770      	bxeq	lr
   1071e:	f093 4f7f 	teq	r3, #4278190080	@ 0xff000000
   10722:	bf04      	itt	eq
   10724:	f441 2100 	orreq.w	r1, r1, #524288	@ 0x80000
   10728:	4770      	bxeq	lr
   1072a:	b530      	push	{r4, r5, lr}
   1072c:	f44f 7460 	mov.w	r4, #896	@ 0x380
   10730:	f001 4500 	and.w	r5, r1, #2147483648	@ 0x80000000
   10734:	f021 4100 	bic.w	r1, r1, #2147483648	@ 0x80000000
   10738:	e71c      	b.n	10574 <__adddf3+0x138>
   1073a:	bf00      	nop

0001073c <__aeabi_ul2d>:
   1073c:	ea50 0201 	orrs.w	r2, r0, r1
   10740:	bf08      	it	eq
   10742:	4770      	bxeq	lr
   10744:	b530      	push	{r4, r5, lr}
   10746:	f04f 0500 	mov.w	r5, #0
   1074a:	e00a      	b.n	10762 <__aeabi_l2d+0x16>

0001074c <__aeabi_l2d>:
   1074c:	ea50 0201 	orrs.w	r2, r0, r1
   10750:	bf08      	it	eq
   10752:	4770      	bxeq	lr
   10754:	b530      	push	{r4, r5, lr}
   10756:	f011 4500 	ands.w	r5, r1, #2147483648	@ 0x80000000
   1075a:	d502      	bpl.n	10762 <__aeabi_l2d+0x16>
   1075c:	4240      	negs	r0, r0
   1075e:	eb61 0141 	sbc.w	r1, r1, r1, lsl #1
   10762:	f44f 6480 	mov.w	r4, #1024	@ 0x400
   10766:	f104 0432 	add.w	r4, r4, #50	@ 0x32
   1076a:	ea5f 5c91 	movs.w	ip, r1, lsr #22
   1076e:	f43f aed8 	beq.w	10522 <__adddf3+0xe6>
   10772:	f04f 0203 	mov.w	r2, #3
   10776:	ea5f 0cdc 	movs.w	ip, ip, lsr #3
   1077a:	bf18      	it	ne
   1077c:	3203      	addne	r2, #3
   1077e:	ea5f 0cdc 	movs.w	ip, ip, lsr #3
   10782:	bf18      	it	ne
   10784:	3203      	addne	r2, #3
   10786:	eb02 02dc 	add.w	r2, r2, ip, lsr #3
   1078a:	f1c2 0320 	rsb	r3, r2, #32
   1078e:	fa00 fc03 	lsl.w	ip, r0, r3
   10792:	fa20 f002 	lsr.w	r0, r0, r2
   10796:	fa01 fe03 	lsl.w	lr, r1, r3
   1079a:	ea40 000e 	orr.w	r0, r0, lr
   1079e:	fa21 f102 	lsr.w	r1, r1, r2
   107a2:	4414      	add	r4, r2
   107a4:	e6bd      	b.n	10522 <__adddf3+0xe6>
   107a6:	bf00      	nop

000107a8 <__aeabi_dmul>:
   107a8:	b570      	push	{r4, r5, r6, lr}
   107aa:	f04f 0cff 	mov.w	ip, #255	@ 0xff
   107ae:	f44c 6ce0 	orr.w	ip, ip, #1792	@ 0x700
   107b2:	ea1c 5411 	ands.w	r4, ip, r1, lsr #20
   107b6:	bf1d      	ittte	ne
   107b8:	ea1c 5513 	andsne.w	r5, ip, r3, lsr #20
   107bc:	ea94 0f0c 	teqne	r4, ip
   107c0:	ea95 0f0c 	teqne	r5, ip
   107c4:	f000 f8de 	bleq	10984 <__aeabi_dmul+0x1dc>
   107c8:	442c      	add	r4, r5
   107ca:	ea81 0603 	eor.w	r6, r1, r3
   107ce:	ea21 514c 	bic.w	r1, r1, ip, lsl #21
   107d2:	ea23 534c 	bic.w	r3, r3, ip, lsl #21
   107d6:	ea50 3501 	orrs.w	r5, r0, r1, lsl #12
   107da:	bf18      	it	ne
   107dc:	ea52 3503 	orrsne.w	r5, r2, r3, lsl #12
   107e0:	f441 1180 	orr.w	r1, r1, #1048576	@ 0x100000
   107e4:	f443 1380 	orr.w	r3, r3, #1048576	@ 0x100000
   107e8:	d038      	beq.n	1085c <__aeabi_dmul+0xb4>
   107ea:	fba0 ce02 	umull	ip, lr, r0, r2
   107ee:	f04f 0500 	mov.w	r5, #0
   107f2:	fbe1 e502 	umlal	lr, r5, r1, r2
   107f6:	f006 4200 	and.w	r2, r6, #2147483648	@ 0x80000000
   107fa:	fbe0 e503 	umlal	lr, r5, r0, r3
   107fe:	f04f 0600 	mov.w	r6, #0
   10802:	fbe1 5603 	umlal	r5, r6, r1, r3
   10806:	f09c 0f00 	teq	ip, #0
   1080a:	bf18      	it	ne
   1080c:	f04e 0e01 	orrne.w	lr, lr, #1
   10810:	f1a4 04ff 	sub.w	r4, r4, #255	@ 0xff
   10814:	f5b6 7f00 	cmp.w	r6, #512	@ 0x200
   10818:	f564 7440 	sbc.w	r4, r4, #768	@ 0x300
   1081c:	d204      	bcs.n	10828 <__aeabi_dmul+0x80>
   1081e:	ea5f 0e4e 	movs.w	lr, lr, lsl #1
   10822:	416d      	adcs	r5, r5
   10824:	eb46 0606 	adc.w	r6, r6, r6
   10828:	ea42 21c6 	orr.w	r1, r2, r6, lsl #11
   1082c:	ea41 5155 	orr.w	r1, r1, r5, lsr #21
   10830:	ea4f 20c5 	mov.w	r0, r5, lsl #11
   10834:	ea40 505e 	orr.w	r0, r0, lr, lsr #21
   10838:	ea4f 2ece 	mov.w	lr, lr, lsl #11
   1083c:	f1b4 0cfd 	subs.w	ip, r4, #253	@ 0xfd
   10840:	bf88      	it	hi
   10842:	f5bc 6fe0 	cmphi.w	ip, #1792	@ 0x700
   10846:	d81e      	bhi.n	10886 <__aeabi_dmul+0xde>
   10848:	f1be 4f00 	cmp.w	lr, #2147483648	@ 0x80000000
   1084c:	bf08      	it	eq
   1084e:	ea5f 0e50 	movseq.w	lr, r0, lsr #1
   10852:	f150 0000 	adcs.w	r0, r0, #0
   10856:	eb41 5104 	adc.w	r1, r1, r4, lsl #20
   1085a:	bd70      	pop	{r4, r5, r6, pc}
   1085c:	f006 4600 	and.w	r6, r6, #2147483648	@ 0x80000000
   10860:	ea46 0101 	orr.w	r1, r6, r1
   10864:	ea40 0002 	orr.w	r0, r0, r2
   10868:	ea81 0103 	eor.w	r1, r1, r3
   1086c:	ebb4 045c 	subs.w	r4, r4, ip, lsr #1
   10870:	bfc2      	ittt	gt
   10872:	ebd4 050c 	rsbsgt	r5, r4, ip
   10876:	ea41 5104 	orrgt.w	r1, r1, r4, lsl #20
   1087a:	bd70      	popgt	{r4, r5, r6, pc}
   1087c:	f441 1180 	orr.w	r1, r1, #1048576	@ 0x100000
   10880:	f04f 0e00 	mov.w	lr, #0
   10884:	3c01      	subs	r4, #1
   10886:	f300 80ab 	bgt.w	109e0 <__aeabi_dmul+0x238>
   1088a:	f114 0f36 	cmn.w	r4, #54	@ 0x36
   1088e:	bfde      	ittt	le
   10890:	2000      	movle	r0, #0
   10892:	f001 4100 	andle.w	r1, r1, #2147483648	@ 0x80000000
   10896:	bd70      	pople	{r4, r5, r6, pc}
   10898:	f1c4 0400 	rsb	r4, r4, #0
   1089c:	3c20      	subs	r4, #32
   1089e:	da35      	bge.n	1090c <__aeabi_dmul+0x164>
   108a0:	340c      	adds	r4, #12
   108a2:	dc1b      	bgt.n	108dc <__aeabi_dmul+0x134>
   108a4:	f104 0414 	add.w	r4, r4, #20
   108a8:	f1c4 0520 	rsb	r5, r4, #32
   108ac:	fa00 f305 	lsl.w	r3, r0, r5
   108b0:	fa20 f004 	lsr.w	r0, r0, r4
   108b4:	fa01 f205 	lsl.w	r2, r1, r5
   108b8:	ea40 0002 	orr.w	r0, r0, r2
   108bc:	f001 4200 	and.w	r2, r1, #2147483648	@ 0x80000000
   108c0:	f021 4100 	bic.w	r1, r1, #2147483648	@ 0x80000000
   108c4:	eb10 70d3 	adds.w	r0, r0, r3, lsr #31
   108c8:	fa21 f604 	lsr.w	r6, r1, r4
   108cc:	eb42 0106 	adc.w	r1, r2, r6
   108d0:	ea5e 0e43 	orrs.w	lr, lr, r3, lsl #1
   108d4:	bf08      	it	eq
   108d6:	ea20 70d3 	biceq.w	r0, r0, r3, lsr #31
   108da:	bd70      	pop	{r4, r5, r6, pc}
   108dc:	f1c4 040c 	rsb	r4, r4, #12
   108e0:	f1c4 0520 	rsb	r5, r4, #32
   108e4:	fa00 f304 	lsl.w	r3, r0, r4
   108e8:	fa20 f005 	lsr.w	r0, r0, r5
   108ec:	fa01 f204 	lsl.w	r2, r1, r4
   108f0:	ea40 0002 	orr.w	r0, r0, r2
   108f4:	f001 4100 	and.w	r1, r1, #2147483648	@ 0x80000000
   108f8:	eb10 70d3 	adds.w	r0, r0, r3, lsr #31
   108fc:	f141 0100 	adc.w	r1, r1, #0
   10900:	ea5e 0e43 	orrs.w	lr, lr, r3, lsl #1
   10904:	bf08      	it	eq
   10906:	ea20 70d3 	biceq.w	r0, r0, r3, lsr #31
   1090a:	bd70      	pop	{r4, r5, r6, pc}
   1090c:	f1c4 0520 	rsb	r5, r4, #32
   10910:	fa00 f205 	lsl.w	r2, r0, r5
   10914:	ea4e 0e02 	orr.w	lr, lr, r2
   10918:	fa20 f304 	lsr.w	r3, r0, r4
   1091c:	fa01 f205 	lsl.w	r2, r1, r5
   10920:	ea43 0302 	orr.w	r3, r3, r2
   10924:	fa21 f004 	lsr.w	r0, r1, r4
   10928:	f001 4100 	and.w	r1, r1, #2147483648	@ 0x80000000
   1092c:	fa21 f204 	lsr.w	r2, r1, r4
   10930:	ea20 0002 	bic.w	r0, r0, r2
   10934:	eb00 70d3 	add.w	r0, r0, r3, lsr #31
   10938:	ea5e 0e43 	orrs.w	lr, lr, r3, lsl #1
   1093c:	bf08      	it	eq
   1093e:	ea20 70d3 	biceq.w	r0, r0, r3, lsr #31
   10942:	bd70      	pop	{r4, r5, r6, pc}
   10944:	f094 0f00 	teq	r4, #0
   10948:	d10f      	bne.n	1096a <__aeabi_dmul+0x1c2>
   1094a:	f001 4600 	and.w	r6, r1, #2147483648	@ 0x80000000
   1094e:	0040      	lsls	r0, r0, #1
   10950:	eb41 0101 	adc.w	r1, r1, r1
   10954:	f411 1f80 	tst.w	r1, #1048576	@ 0x100000
   10958:	bf08      	it	eq
   1095a:	3c01      	subeq	r4, #1
   1095c:	d0f7      	beq.n	1094e <__aeabi_dmul+0x1a6>
   1095e:	ea41 0106 	orr.w	r1, r1, r6
   10962:	f095 0f00 	teq	r5, #0
   10966:	bf18      	it	ne
   10968:	4770      	bxne	lr
   1096a:	f003 4600 	and.w	r6, r3, #2147483648	@ 0x80000000
   1096e:	0052      	lsls	r2, r2, #1
   10970:	eb43 0303 	adc.w	r3, r3, r3
   10974:	f413 1f80 	tst.w	r3, #1048576	@ 0x100000
   10978:	bf08      	it	eq
   1097a:	3d01      	subeq	r5, #1
   1097c:	d0f7      	beq.n	1096e <__aeabi_dmul+0x1c6>
   1097e:	ea43 0306 	orr.w	r3, r3, r6
   10982:	4770      	bx	lr
   10984:	ea94 0f0c 	teq	r4, ip
   10988:	ea0c 5513 	and.w	r5, ip, r3, lsr #20
   1098c:	bf18      	it	ne
   1098e:	ea95 0f0c 	teqne	r5, ip
   10992:	d00c      	beq.n	109ae <__aeabi_dmul+0x206>
   10994:	ea50 0641 	orrs.w	r6, r0, r1, lsl #1
   10998:	bf18      	it	ne
   1099a:	ea52 0643 	orrsne.w	r6, r2, r3, lsl #1
   1099e:	d1d1      	bne.n	10944 <__aeabi_dmul+0x19c>
   109a0:	ea81 0103 	eor.w	r1, r1, r3
   109a4:	f001 4100 	and.w	r1, r1, #2147483648	@ 0x80000000
   109a8:	f04f 0000 	mov.w	r0, #0
   109ac:	bd70      	pop	{r4, r5, r6, pc}
   109ae:	ea50 0641 	orrs.w	r6, r0, r1, lsl #1
   109b2:	bf06      	itte	eq
   109b4:	4610      	moveq	r0, r2
   109b6:	4619      	moveq	r1, r3
   109b8:	ea52 0643 	orrsne.w	r6, r2, r3, lsl #1
   109bc:	d019      	beq.n	109f2 <__aeabi_dmul+0x24a>
   109be:	ea94 0f0c 	teq	r4, ip
   109c2:	d102      	bne.n	109ca <__aeabi_dmul+0x222>
   109c4:	ea50 3601 	orrs.w	r6, r0, r1, lsl #12
   109c8:	d113      	bne.n	109f2 <__aeabi_dmul+0x24a>
   109ca:	ea95 0f0c 	teq	r5, ip
   109ce:	d105      	bne.n	109dc <__aeabi_dmul+0x234>
   109d0:	ea52 3603 	orrs.w	r6, r2, r3, lsl #12
   109d4:	bf1c      	itt	ne
   109d6:	4610      	movne	r0, r2
   109d8:	4619      	movne	r1, r3
   109da:	d10a      	bne.n	109f2 <__aeabi_dmul+0x24a>
   109dc:	ea81 0103 	eor.w	r1, r1, r3
   109e0:	f001 4100 	and.w	r1, r1, #2147483648	@ 0x80000000
   109e4:	f041 41fe 	orr.w	r1, r1, #2130706432	@ 0x7f000000
   109e8:	f441 0170 	orr.w	r1, r1, #15728640	@ 0xf00000
   109ec:	f04f 0000 	mov.w	r0, #0
   109f0:	bd70      	pop	{r4, r5, r6, pc}
   109f2:	f041 41fe 	orr.w	r1, r1, #2130706432	@ 0x7f000000
   109f6:	f441 0178 	orr.w	r1, r1, #16252928	@ 0xf80000
   109fa:	bd70      	pop	{r4, r5, r6, pc}

000109fc <__aeabi_ddiv>:
   109fc:	b570      	push	{r4, r5, r6, lr}
   109fe:	f04f 0cff 	mov.w	ip, #255	@ 0xff
   10a02:	f44c 6ce0 	orr.w	ip, ip, #1792	@ 0x700
   10a06:	ea1c 5411 	ands.w	r4, ip, r1, lsr #20
   10a0a:	bf1d      	ittte	ne
   10a0c:	ea1c 5513 	andsne.w	r5, ip, r3, lsr #20
   10a10:	ea94 0f0c 	teqne	r4, ip
   10a14:	ea95 0f0c 	teqne	r5, ip
   10a18:	f000 f8a7 	bleq	10b6a <__aeabi_ddiv+0x16e>
   10a1c:	eba4 0405 	sub.w	r4, r4, r5
   10a20:	ea81 0e03 	eor.w	lr, r1, r3
   10a24:	ea52 3503 	orrs.w	r5, r2, r3, lsl #12
   10a28:	ea4f 3101 	mov.w	r1, r1, lsl #12
   10a2c:	f000 8088 	beq.w	10b40 <__aeabi_ddiv+0x144>
   10a30:	ea4f 3303 	mov.w	r3, r3, lsl #12
   10a34:	f04f 5580 	mov.w	r5, #268435456	@ 0x10000000
   10a38:	ea45 1313 	orr.w	r3, r5, r3, lsr #4
   10a3c:	ea43 6312 	orr.w	r3, r3, r2, lsr #24
   10a40:	ea4f 2202 	mov.w	r2, r2, lsl #8
   10a44:	ea45 1511 	orr.w	r5, r5, r1, lsr #4
   10a48:	ea45 6510 	orr.w	r5, r5, r0, lsr #24
   10a4c:	ea4f 2600 	mov.w	r6, r0, lsl #8
   10a50:	f00e 4100 	and.w	r1, lr, #2147483648	@ 0x80000000
   10a54:	429d      	cmp	r5, r3
   10a56:	bf08      	it	eq
   10a58:	4296      	cmpeq	r6, r2
   10a5a:	f144 04fd 	adc.w	r4, r4, #253	@ 0xfd
   10a5e:	f504 7440 	add.w	r4, r4, #768	@ 0x300
   10a62:	d202      	bcs.n	10a6a <__aeabi_ddiv+0x6e>
   10a64:	085b      	lsrs	r3, r3, #1
   10a66:	ea4f 0232 	mov.w	r2, r2, rrx
   10a6a:	1ab6      	subs	r6, r6, r2
   10a6c:	eb65 0503 	sbc.w	r5, r5, r3
   10a70:	085b      	lsrs	r3, r3, #1
   10a72:	ea4f 0232 	mov.w	r2, r2, rrx
   10a76:	f44f 1080 	mov.w	r0, #1048576	@ 0x100000
   10a7a:	f44f 2c00 	mov.w	ip, #524288	@ 0x80000
   10a7e:	ebb6 0e02 	subs.w	lr, r6, r2
   10a82:	eb75 0e03 	sbcs.w	lr, r5, r3
   10a86:	bf22      	ittt	cs
   10a88:	1ab6      	subcs	r6, r6, r2
   10a8a:	4675      	movcs	r5, lr
   10a8c:	ea40 000c 	orrcs.w	r0, r0, ip
   10a90:	085b      	lsrs	r3, r3, #1
   10a92:	ea4f 0232 	mov.w	r2, r2, rrx
   10a96:	ebb6 0e02 	subs.w	lr, r6, r2
   10a9a:	eb75 0e03 	sbcs.w	lr, r5, r3
   10a9e:	bf22      	ittt	cs
   10aa0:	1ab6      	subcs	r6, r6, r2
   10aa2:	4675      	movcs	r5, lr
   10aa4:	ea40 005c 	orrcs.w	r0, r0, ip, lsr #1
   10aa8:	085b      	lsrs	r3, r3, #1
   10aaa:	ea4f 0232 	mov.w	r2, r2, rrx
   10aae:	ebb6 0e02 	subs.w	lr, r6, r2
   10ab2:	eb75 0e03 	sbcs.w	lr, r5, r3
   10ab6:	bf22      	ittt	cs
   10ab8:	1ab6      	subcs	r6, r6, r2
   10aba:	4675      	movcs	r5, lr
   10abc:	ea40 009c 	orrcs.w	r0, r0, ip, lsr #2
   10ac0:	085b      	lsrs	r3, r3, #1
   10ac2:	ea4f 0232 	mov.w	r2, r2, rrx
   10ac6:	ebb6 0e02 	subs.w	lr, r6, r2
   10aca:	eb75 0e03 	sbcs.w	lr, r5, r3
   10ace:	bf22      	ittt	cs
   10ad0:	1ab6      	subcs	r6, r6, r2
   10ad2:	4675      	movcs	r5, lr
   10ad4:	ea40 00dc 	orrcs.w	r0, r0, ip, lsr #3
   10ad8:	ea55 0e06 	orrs.w	lr, r5, r6
   10adc:	d018      	beq.n	10b10 <__aeabi_ddiv+0x114>
   10ade:	ea4f 1505 	mov.w	r5, r5, lsl #4
   10ae2:	ea45 7516 	orr.w	r5, r5, r6, lsr #28
   10ae6:	ea4f 1606 	mov.w	r6, r6, lsl #4
   10aea:	ea4f 03c3 	mov.w	r3, r3, lsl #3
   10aee:	ea43 7352 	orr.w	r3, r3, r2, lsr #29
   10af2:	ea4f 02c2 	mov.w	r2, r2, lsl #3
   10af6:	ea5f 1c1c 	movs.w	ip, ip, lsr #4
   10afa:	d1c0      	bne.n	10a7e <__aeabi_ddiv+0x82>
   10afc:	f411 1f80 	tst.w	r1, #1048576	@ 0x100000
   10b00:	d10b      	bne.n	10b1a <__aeabi_ddiv+0x11e>
   10b02:	ea41 0100 	orr.w	r1, r1, r0
   10b06:	f04f 0000 	mov.w	r0, #0
   10b0a:	f04f 4c00 	mov.w	ip, #2147483648	@ 0x80000000
   10b0e:	e7b6      	b.n	10a7e <__aeabi_ddiv+0x82>
   10b10:	f411 1f80 	tst.w	r1, #1048576	@ 0x100000
   10b14:	bf04      	itt	eq
   10b16:	4301      	orreq	r1, r0
   10b18:	2000      	moveq	r0, #0
   10b1a:	f1b4 0cfd 	subs.w	ip, r4, #253	@ 0xfd
   10b1e:	bf88      	it	hi
   10b20:	f5bc 6fe0 	cmphi.w	ip, #1792	@ 0x700
   10b24:	f63f aeaf 	bhi.w	10886 <__aeabi_dmul+0xde>
   10b28:	ebb5 0c03 	subs.w	ip, r5, r3
   10b2c:	bf04      	itt	eq
   10b2e:	ebb6 0c02 	subseq.w	ip, r6, r2
   10b32:	ea5f 0c50 	movseq.w	ip, r0, lsr #1
   10b36:	f150 0000 	adcs.w	r0, r0, #0
   10b3a:	eb41 5104 	adc.w	r1, r1, r4, lsl #20
   10b3e:	bd70      	pop	{r4, r5, r6, pc}
   10b40:	f00e 4e00 	and.w	lr, lr, #2147483648	@ 0x80000000
   10b44:	ea4e 3111 	orr.w	r1, lr, r1, lsr #12
   10b48:	eb14 045c 	adds.w	r4, r4, ip, lsr #1
   10b4c:	bfc2      	ittt	gt
   10b4e:	ebd4 050c 	rsbsgt	r5, r4, ip
   10b52:	ea41 5104 	orrgt.w	r1, r1, r4, lsl #20
   10b56:	bd70      	popgt	{r4, r5, r6, pc}
   10b58:	f441 1180 	orr.w	r1, r1, #1048576	@ 0x100000
   10b5c:	f04f 0e00 	mov.w	lr, #0
   10b60:	3c01      	subs	r4, #1
   10b62:	e690      	b.n	10886 <__aeabi_dmul+0xde>
   10b64:	ea45 0e06 	orr.w	lr, r5, r6
   10b68:	e68d      	b.n	10886 <__aeabi_dmul+0xde>
   10b6a:	ea0c 5513 	and.w	r5, ip, r3, lsr #20
   10b6e:	ea94 0f0c 	teq	r4, ip
   10b72:	bf08      	it	eq
   10b74:	ea95 0f0c 	teqeq	r5, ip
   10b78:	f43f af3b 	beq.w	109f2 <__aeabi_dmul+0x24a>
   10b7c:	ea94 0f0c 	teq	r4, ip
   10b80:	d10a      	bne.n	10b98 <__aeabi_ddiv+0x19c>
   10b82:	ea50 3401 	orrs.w	r4, r0, r1, lsl #12
   10b86:	f47f af34 	bne.w	109f2 <__aeabi_dmul+0x24a>
   10b8a:	ea95 0f0c 	teq	r5, ip
   10b8e:	f47f af25 	bne.w	109dc <__aeabi_dmul+0x234>
   10b92:	4610      	mov	r0, r2
   10b94:	4619      	mov	r1, r3
   10b96:	e72c      	b.n	109f2 <__aeabi_dmul+0x24a>
   10b98:	ea95 0f0c 	teq	r5, ip
   10b9c:	d106      	bne.n	10bac <__aeabi_ddiv+0x1b0>
   10b9e:	ea52 3503 	orrs.w	r5, r2, r3, lsl #12
   10ba2:	f43f aefd 	beq.w	109a0 <__aeabi_dmul+0x1f8>
   10ba6:	4610      	mov	r0, r2
   10ba8:	4619      	mov	r1, r3
   10baa:	e722      	b.n	109f2 <__aeabi_dmul+0x24a>
   10bac:	ea50 0641 	orrs.w	r6, r0, r1, lsl #1
   10bb0:	bf18      	it	ne
   10bb2:	ea52 0643 	orrsne.w	r6, r2, r3, lsl #1
   10bb6:	f47f aec5 	bne.w	10944 <__aeabi_dmul+0x19c>
   10bba:	ea50 0441 	orrs.w	r4, r0, r1, lsl #1
   10bbe:	f47f af0d 	bne.w	109dc <__aeabi_dmul+0x234>
   10bc2:	ea52 0543 	orrs.w	r5, r2, r3, lsl #1
   10bc6:	f47f aeeb 	bne.w	109a0 <__aeabi_dmul+0x1f8>
   10bca:	e712      	b.n	109f2 <__aeabi_dmul+0x24a>

00010bcc <__gedf2>:
   10bcc:	f04f 3cff 	mov.w	ip, #4294967295	@ 0xffffffff
   10bd0:	e006      	b.n	10be0 <__cmpdf2+0x4>
   10bd2:	bf00      	nop

00010bd4 <__ledf2>:
   10bd4:	f04f 0c01 	mov.w	ip, #1
   10bd8:	e002      	b.n	10be0 <__cmpdf2+0x4>
   10bda:	bf00      	nop

00010bdc <__cmpdf2>:
   10bdc:	f04f 0c01 	mov.w	ip, #1
   10be0:	f84d cd04 	str.w	ip, [sp, #-4]!
   10be4:	ea4f 0c41 	mov.w	ip, r1, lsl #1
   10be8:	ea7f 5c6c 	mvns.w	ip, ip, asr #21
   10bec:	ea4f 0c43 	mov.w	ip, r3, lsl #1
   10bf0:	bf18      	it	ne
   10bf2:	ea7f 5c6c 	mvnsne.w	ip, ip, asr #21
   10bf6:	d01b      	beq.n	10c30 <__cmpdf2+0x54>
   10bf8:	b001      	add	sp, #4
   10bfa:	ea50 0c41 	orrs.w	ip, r0, r1, lsl #1
   10bfe:	bf0c      	ite	eq
   10c00:	ea52 0c43 	orrseq.w	ip, r2, r3, lsl #1
   10c04:	ea91 0f03 	teqne	r1, r3
   10c08:	bf02      	ittt	eq
   10c0a:	ea90 0f02 	teqeq	r0, r2
   10c0e:	2000      	moveq	r0, #0
   10c10:	4770      	bxeq	lr
   10c12:	f110 0f00 	cmn.w	r0, #0
   10c16:	ea91 0f03 	teq	r1, r3
   10c1a:	bf58      	it	pl
   10c1c:	4299      	cmppl	r1, r3
   10c1e:	bf08      	it	eq
   10c20:	4290      	cmpeq	r0, r2
   10c22:	bf2c      	ite	cs
   10c24:	17d8      	asrcs	r0, r3, #31
   10c26:	ea6f 70e3 	mvncc.w	r0, r3, asr #31
   10c2a:	f040 0001 	orr.w	r0, r0, #1
   10c2e:	4770      	bx	lr
   10c30:	ea4f 0c41 	mov.w	ip, r1, lsl #1
   10c34:	ea7f 5c6c 	mvns.w	ip, ip, asr #21
   10c38:	d102      	bne.n	10c40 <__cmpdf2+0x64>
   10c3a:	ea50 3c01 	orrs.w	ip, r0, r1, lsl #12
   10c3e:	d107      	bne.n	10c50 <__cmpdf2+0x74>
   10c40:	ea4f 0c43 	mov.w	ip, r3, lsl #1
   10c44:	ea7f 5c6c 	mvns.w	ip, ip, asr #21
   10c48:	d1d6      	bne.n	10bf8 <__cmpdf2+0x1c>
   10c4a:	ea52 3c03 	orrs.w	ip, r2, r3, lsl #12
   10c4e:	d0d3      	beq.n	10bf8 <__cmpdf2+0x1c>
   10c50:	f85d 0b04 	ldr.w	r0, [sp], #4
   10c54:	4770      	bx	lr
   10c56:	bf00      	nop

00010c58 <__aeabi_cdrcmple>:
   10c58:	4684      	mov	ip, r0
   10c5a:	4610      	mov	r0, r2
   10c5c:	4662      	mov	r2, ip
   10c5e:	468c      	mov	ip, r1
   10c60:	4619      	mov	r1, r3
   10c62:	4663      	mov	r3, ip
   10c64:	e000      	b.n	10c68 <__aeabi_cdcmpeq>
   10c66:	bf00      	nop

00010c68 <__aeabi_cdcmpeq>:
   10c68:	b501      	push	{r0, lr}
   10c6a:	f7ff ffb7 	bl	10bdc <__cmpdf2>
   10c6e:	2800      	cmp	r0, #0
   10c70:	bf48      	it	mi
   10c72:	f110 0f00 	cmnmi.w	r0, #0
   10c76:	bd01      	pop	{r0, pc}

00010c78 <__aeabi_dcmpeq>:
   10c78:	f84d ed08 	str.w	lr, [sp, #-8]!
   10c7c:	f7ff fff4 	bl	10c68 <__aeabi_cdcmpeq>
   10c80:	bf0c      	ite	eq
   10c82:	2001      	moveq	r0, #1
   10c84:	2000      	movne	r0, #0
   10c86:	f85d fb08 	ldr.w	pc, [sp], #8
   10c8a:	bf00      	nop

00010c8c <__aeabi_dcmplt>:
   10c8c:	f84d ed08 	str.w	lr, [sp, #-8]!
   10c90:	f7ff ffea 	bl	10c68 <__aeabi_cdcmpeq>
   10c94:	bf34      	ite	cc
   10c96:	2001      	movcc	r0, #1
   10c98:	2000      	movcs	r0, #0
   10c9a:	f85d fb08 	ldr.w	pc, [sp], #8
   10c9e:	bf00      	nop

00010ca0 <__aeabi_dcmple>:
   10ca0:	f84d ed08 	str.w	lr, [sp, #-8]!
   10ca4:	f7ff ffe0 	bl	10c68 <__aeabi_cdcmpeq>
   10ca8:	bf94      	ite	ls
   10caa:	2001      	movls	r0, #1
   10cac:	2000      	movhi	r0, #0
   10cae:	f85d fb08 	ldr.w	pc, [sp], #8
   10cb2:	bf00      	nop

00010cb4 <__aeabi_dcmpge>:
   10cb4:	f84d ed08 	str.w	lr, [sp, #-8]!
   10cb8:	f7ff ffce 	bl	10c58 <__aeabi_cdrcmple>
   10cbc:	bf94      	ite	ls
   10cbe:	2001      	movls	r0, #1
   10cc0:	2000      	movhi	r0, #0
   10cc2:	f85d fb08 	ldr.w	pc, [sp], #8
   10cc6:	bf00      	nop

00010cc8 <__aeabi_dcmpgt>:
   10cc8:	f84d ed08 	str.w	lr, [sp, #-8]!
   10ccc:	f7ff ffc4 	bl	10c58 <__aeabi_cdrcmple>
   10cd0:	bf34      	ite	cc
   10cd2:	2001      	movcc	r0, #1
   10cd4:	2000      	movcs	r0, #0
   10cd6:	f85d fb08 	ldr.w	pc, [sp], #8
   10cda:	bf00      	nop

00010cdc <__aeabi_dcmpun>:
   10cdc:	ea4f 0c41 	mov.w	ip, r1, lsl #1
   10ce0:	ea7f 5c6c 	mvns.w	ip, ip, asr #21
   10ce4:	d102      	bne.n	10cec <__aeabi_dcmpun+0x10>
   10ce6:	ea50 3c01 	orrs.w	ip, r0, r1, lsl #12
   10cea:	d10a      	bne.n	10d02 <__aeabi_dcmpun+0x26>
   10cec:	ea4f 0c43 	mov.w	ip, r3, lsl #1
   10cf0:	ea7f 5c6c 	mvns.w	ip, ip, asr #21
   10cf4:	d102      	bne.n	10cfc <__aeabi_dcmpun+0x20>
   10cf6:	ea52 3c03 	orrs.w	ip, r2, r3, lsl #12
   10cfa:	d102      	bne.n	10d02 <__aeabi_dcmpun+0x26>
   10cfc:	f04f 0000 	mov.w	r0, #0
   10d00:	4770      	bx	lr
   10d02:	f04f 0001 	mov.w	r0, #1
   10d06:	4770      	bx	lr

00010d08 <__aeabi_d2iz>:
   10d08:	ea4f 0241 	mov.w	r2, r1, lsl #1
   10d0c:	f512 1200 	adds.w	r2, r2, #2097152	@ 0x200000
   10d10:	d215      	bcs.n	10d3e <__aeabi_d2iz+0x36>
   10d12:	d511      	bpl.n	10d38 <__aeabi_d2iz+0x30>
   10d14:	f46f 7378 	mvn.w	r3, #992	@ 0x3e0
   10d18:	ebb3 5262 	subs.w	r2, r3, r2, asr #21
   10d1c:	d912      	bls.n	10d44 <__aeabi_d2iz+0x3c>
   10d1e:	ea4f 23c1 	mov.w	r3, r1, lsl #11
   10d22:	f043 4300 	orr.w	r3, r3, #2147483648	@ 0x80000000
   10d26:	ea43 5350 	orr.w	r3, r3, r0, lsr #21
   10d2a:	f011 4f00 	tst.w	r1, #2147483648	@ 0x80000000
   10d2e:	fa23 f002 	lsr.w	r0, r3, r2
   10d32:	bf18      	it	ne
   10d34:	4240      	negne	r0, r0
   10d36:	4770      	bx	lr
   10d38:	f04f 0000 	mov.w	r0, #0
   10d3c:	4770      	bx	lr
   10d3e:	ea50 3001 	orrs.w	r0, r0, r1, lsl #12
   10d42:	d105      	bne.n	10d50 <__aeabi_d2iz+0x48>
   10d44:	f011 4000 	ands.w	r0, r1, #2147483648	@ 0x80000000
   10d48:	bf08      	it	eq
   10d4a:	f06f 4000 	mvneq.w	r0, #2147483648	@ 0x80000000
   10d4e:	4770      	bx	lr
   10d50:	f04f 0000 	mov.w	r0, #0
   10d54:	4770      	bx	lr
   10d56:	bf00      	nop

Disassembly of section .text.__cvt:

00010d58 <__cvt>:
   10d58:	e92d 47ff 	stmdb	sp!, {r0, r1, r2, r3, r4, r5, r6, r7, r8, r9, sl, lr}
   10d5c:	ec57 6b10 	vmov	r6, r7, d0
   10d60:	2f00      	cmp	r7, #0
   10d62:	460c      	mov	r4, r1
   10d64:	4619      	mov	r1, r3
   10d66:	463b      	mov	r3, r7
   10d68:	bfbb      	ittet	lt
   10d6a:	f107 4300 	addlt.w	r3, r7, #2147483648	@ 0x80000000
   10d6e:	461f      	movlt	r7, r3
   10d70:	2300      	movge	r3, #0
   10d72:	232d      	movlt	r3, #45	@ 0x2d
   10d74:	700b      	strb	r3, [r1, #0]
   10d76:	9b0d      	ldr	r3, [sp, #52]	@ 0x34
   10d78:	f8dd a030 	ldr.w	sl, [sp, #48]	@ 0x30
   10d7c:	4691      	mov	r9, r2
   10d7e:	f023 0820 	bic.w	r8, r3, #32
   10d82:	bfbc      	itt	lt
   10d84:	4632      	movlt	r2, r6
   10d86:	4616      	movlt	r6, r2
   10d88:	f1b8 0f46 	cmp.w	r8, #70	@ 0x46
   10d8c:	d005      	beq.n	10d9a <__cvt+0x42>
   10d8e:	f1b8 0f45 	cmp.w	r8, #69	@ 0x45
   10d92:	d100      	bne.n	10d96 <__cvt+0x3e>
   10d94:	3401      	adds	r4, #1
   10d96:	2102      	movs	r1, #2
   10d98:	e000      	b.n	10d9c <__cvt+0x44>
   10d9a:	2103      	movs	r1, #3
   10d9c:	ab03      	add	r3, sp, #12
   10d9e:	9301      	str	r3, [sp, #4]
   10da0:	ab02      	add	r3, sp, #8
   10da2:	9300      	str	r3, [sp, #0]
   10da4:	ec47 6b10 	vmov	d0, r6, r7
   10da8:	4653      	mov	r3, sl
   10daa:	4622      	mov	r2, r4
   10dac:	f000 fcb4 	bl	11718 <_dtoa_r>
   10db0:	f1b8 0f47 	cmp.w	r8, #71	@ 0x47
   10db4:	4605      	mov	r5, r0
   10db6:	d119      	bne.n	10dec <__cvt+0x94>
   10db8:	f019 0f01 	tst.w	r9, #1
   10dbc:	d00e      	beq.n	10ddc <__cvt+0x84>
   10dbe:	eb00 0904 	add.w	r9, r0, r4
   10dc2:	2200      	movs	r2, #0
   10dc4:	2300      	movs	r3, #0
   10dc6:	4630      	mov	r0, r6
   10dc8:	4639      	mov	r1, r7
   10dca:	f7ff ff55 	bl	10c78 <__aeabi_dcmpeq>
   10dce:	b108      	cbz	r0, 10dd4 <__cvt+0x7c>
   10dd0:	f8cd 900c 	str.w	r9, [sp, #12]
   10dd4:	2230      	movs	r2, #48	@ 0x30
   10dd6:	9b03      	ldr	r3, [sp, #12]
   10dd8:	454b      	cmp	r3, r9
   10dda:	d31e      	bcc.n	10e1a <__cvt+0xc2>
   10ddc:	9b03      	ldr	r3, [sp, #12]
   10dde:	9a0e      	ldr	r2, [sp, #56]	@ 0x38
   10de0:	1b5b      	subs	r3, r3, r5
   10de2:	4628      	mov	r0, r5
   10de4:	6013      	str	r3, [r2, #0]
   10de6:	b004      	add	sp, #16
   10de8:	e8bd 87f0 	ldmia.w	sp!, {r4, r5, r6, r7, r8, r9, sl, pc}
   10dec:	f1b8 0f46 	cmp.w	r8, #70	@ 0x46
   10df0:	eb00 0904 	add.w	r9, r0, r4
   10df4:	d1e5      	bne.n	10dc2 <__cvt+0x6a>
   10df6:	7803      	ldrb	r3, [r0, #0]
   10df8:	2b30      	cmp	r3, #48	@ 0x30
   10dfa:	d10a      	bne.n	10e12 <__cvt+0xba>
   10dfc:	2200      	movs	r2, #0
   10dfe:	2300      	movs	r3, #0
   10e00:	4630      	mov	r0, r6
   10e02:	4639      	mov	r1, r7
   10e04:	f7ff ff38 	bl	10c78 <__aeabi_dcmpeq>
   10e08:	b918      	cbnz	r0, 10e12 <__cvt+0xba>
   10e0a:	f1c4 0401 	rsb	r4, r4, #1
   10e0e:	f8ca 4000 	str.w	r4, [sl]
   10e12:	f8da 3000 	ldr.w	r3, [sl]
   10e16:	4499      	add	r9, r3
   10e18:	e7d3      	b.n	10dc2 <__cvt+0x6a>
   10e1a:	1c59      	adds	r1, r3, #1
   10e1c:	9103      	str	r1, [sp, #12]
   10e1e:	701a      	strb	r2, [r3, #0]
   10e20:	e7d9      	b.n	10dd6 <__cvt+0x7e>

Disassembly of section .text.__exponent:

00010e22 <__exponent>:
   10e22:	b5f7      	push	{r0, r1, r2, r4, r5, r6, r7, lr}
   10e24:	2900      	cmp	r1, #0
   10e26:	bfba      	itte	lt
   10e28:	4249      	neglt	r1, r1
   10e2a:	232d      	movlt	r3, #45	@ 0x2d
   10e2c:	232b      	movge	r3, #43	@ 0x2b
   10e2e:	2909      	cmp	r1, #9
   10e30:	7002      	strb	r2, [r0, #0]
   10e32:	7043      	strb	r3, [r0, #1]
   10e34:	dd29      	ble.n	10e8a <__exponent+0x68>
   10e36:	f10d 0307 	add.w	r3, sp, #7
   10e3a:	461d      	mov	r5, r3
   10e3c:	270a      	movs	r7, #10
   10e3e:	461a      	mov	r2, r3
   10e40:	fbb1 f6f7 	udiv	r6, r1, r7
   10e44:	fb07 1416 	mls	r4, r7, r6, r1
   10e48:	3430      	adds	r4, #48	@ 0x30
   10e4a:	f802 4c01 	strb.w	r4, [r2, #-1]
   10e4e:	460c      	mov	r4, r1
   10e50:	2c63      	cmp	r4, #99	@ 0x63
   10e52:	f103 33ff 	add.w	r3, r3, #4294967295	@ 0xffffffff
   10e56:	4631      	mov	r1, r6
   10e58:	dcf1      	bgt.n	10e3e <__exponent+0x1c>
   10e5a:	3130      	adds	r1, #48	@ 0x30
   10e5c:	1e94      	subs	r4, r2, #2
   10e5e:	f803 1c01 	strb.w	r1, [r3, #-1]
   10e62:	1c41      	adds	r1, r0, #1
   10e64:	4623      	mov	r3, r4
   10e66:	42ab      	cmp	r3, r5
   10e68:	d30a      	bcc.n	10e80 <__exponent+0x5e>
   10e6a:	f10d 0309 	add.w	r3, sp, #9
   10e6e:	1a9b      	subs	r3, r3, r2
   10e70:	42ac      	cmp	r4, r5
   10e72:	bf88      	it	hi
   10e74:	2300      	movhi	r3, #0
   10e76:	3302      	adds	r3, #2
   10e78:	4403      	add	r3, r0
   10e7a:	1a18      	subs	r0, r3, r0
   10e7c:	b003      	add	sp, #12
   10e7e:	bdf0      	pop	{r4, r5, r6, r7, pc}
   10e80:	f813 6b01 	ldrb.w	r6, [r3], #1
   10e84:	f801 6f01 	strb.w	r6, [r1, #1]!
   10e88:	e7ed      	b.n	10e66 <__exponent+0x44>
   10e8a:	2330      	movs	r3, #48	@ 0x30
   10e8c:	3130      	adds	r1, #48	@ 0x30
   10e8e:	7083      	strb	r3, [r0, #2]
   10e90:	70c1      	strb	r1, [r0, #3]
   10e92:	1d03      	adds	r3, r0, #4
   10e94:	e7f1      	b.n	10e7a <__exponent+0x58>

Disassembly of section .text._printf_float:

00010e98 <_printf_float>:
   10e98:	e92d 4ff0 	stmdb	sp!, {r4, r5, r6, r7, r8, r9, sl, fp, lr}
   10e9c:	b08d      	sub	sp, #52	@ 0x34
   10e9e:	460c      	mov	r4, r1
   10ea0:	f8dd 8058 	ldr.w	r8, [sp, #88]	@ 0x58
   10ea4:	4616      	mov	r6, r2
   10ea6:	461f      	mov	r7, r3
   10ea8:	4605      	mov	r5, r0
   10eaa:	f001 f9f1 	bl	12290 <_localeconv_r>
   10eae:	6803      	ldr	r3, [r0, #0]
   10eb0:	9304      	str	r3, [sp, #16]
   10eb2:	4618      	mov	r0, r3
   10eb4:	f7ff f90c 	bl	100d0 <strlen>
   10eb8:	2300      	movs	r3, #0
   10eba:	930a      	str	r3, [sp, #40]	@ 0x28
   10ebc:	f8d8 3000 	ldr.w	r3, [r8]
   10ec0:	9005      	str	r0, [sp, #20]
   10ec2:	3307      	adds	r3, #7
   10ec4:	f023 0307 	bic.w	r3, r3, #7
   10ec8:	f103 0208 	add.w	r2, r3, #8
   10ecc:	f894 a018 	ldrb.w	sl, [r4, #24]
   10ed0:	f8d4 b000 	ldr.w	fp, [r4]
   10ed4:	f8c8 2000 	str.w	r2, [r8]
   10ed8:	e9d3 8900 	ldrd	r8, r9, [r3]
   10edc:	f029 4300 	bic.w	r3, r9, #2147483648	@ 0x80000000
   10ee0:	9307      	str	r3, [sp, #28]
   10ee2:	f8cd 8018 	str.w	r8, [sp, #24]
   10ee6:	e9c4 8912 	strd	r8, r9, [r4, #72]	@ 0x48
   10eea:	e9dd 0106 	ldrd	r0, r1, [sp, #24]
   10eee:	4b9c      	ldr	r3, [pc, #624]	@ (11160 <_printf_float+0x2c8>)
   10ef0:	f04f 32ff 	mov.w	r2, #4294967295	@ 0xffffffff
   10ef4:	f7ff fef2 	bl	10cdc <__aeabi_dcmpun>
   10ef8:	bb70      	cbnz	r0, 10f58 <_printf_float+0xc0>
   10efa:	e9dd 0106 	ldrd	r0, r1, [sp, #24]
   10efe:	4b98      	ldr	r3, [pc, #608]	@ (11160 <_printf_float+0x2c8>)
   10f00:	f04f 32ff 	mov.w	r2, #4294967295	@ 0xffffffff
   10f04:	f7ff fecc 	bl	10ca0 <__aeabi_dcmple>
   10f08:	bb30      	cbnz	r0, 10f58 <_printf_float+0xc0>
   10f0a:	2200      	movs	r2, #0
   10f0c:	2300      	movs	r3, #0
   10f0e:	4640      	mov	r0, r8
   10f10:	4649      	mov	r1, r9
   10f12:	f7ff febb 	bl	10c8c <__aeabi_dcmplt>
   10f16:	b110      	cbz	r0, 10f1e <_printf_float+0x86>
   10f18:	232d      	movs	r3, #45	@ 0x2d
   10f1a:	f884 3043 	strb.w	r3, [r4, #67]	@ 0x43
   10f1e:	4a91      	ldr	r2, [pc, #580]	@ (11164 <_printf_float+0x2cc>)
   10f20:	4b91      	ldr	r3, [pc, #580]	@ (11168 <_printf_float+0x2d0>)
   10f22:	f1ba 0f47 	cmp.w	sl, #71	@ 0x47
   10f26:	bf8c      	ite	hi
   10f28:	4690      	movhi	r8, r2
   10f2a:	4698      	movls	r8, r3
   10f2c:	2303      	movs	r3, #3
   10f2e:	6123      	str	r3, [r4, #16]
   10f30:	f02b 0304 	bic.w	r3, fp, #4
   10f34:	6023      	str	r3, [r4, #0]
   10f36:	f04f 0900 	mov.w	r9, #0
   10f3a:	9700      	str	r7, [sp, #0]
   10f3c:	4633      	mov	r3, r6
   10f3e:	aa0b      	add	r2, sp, #44	@ 0x2c
   10f40:	4621      	mov	r1, r4
   10f42:	4628      	mov	r0, r5
   10f44:	f000 f9d2 	bl	112ec <_printf_common>
   10f48:	3001      	adds	r0, #1
   10f4a:	f040 808d 	bne.w	11068 <_printf_float+0x1d0>
   10f4e:	f04f 30ff 	mov.w	r0, #4294967295	@ 0xffffffff
   10f52:	b00d      	add	sp, #52	@ 0x34
   10f54:	e8bd 8ff0 	ldmia.w	sp!, {r4, r5, r6, r7, r8, r9, sl, fp, pc}
   10f58:	4642      	mov	r2, r8
   10f5a:	464b      	mov	r3, r9
   10f5c:	4640      	mov	r0, r8
   10f5e:	4649      	mov	r1, r9
   10f60:	f7ff febc 	bl	10cdc <__aeabi_dcmpun>
   10f64:	b140      	cbz	r0, 10f78 <_printf_float+0xe0>
   10f66:	464b      	mov	r3, r9
   10f68:	2b00      	cmp	r3, #0
   10f6a:	bfbc      	itt	lt
   10f6c:	232d      	movlt	r3, #45	@ 0x2d
   10f6e:	f884 3043 	strblt.w	r3, [r4, #67]	@ 0x43
   10f72:	4a7e      	ldr	r2, [pc, #504]	@ (1116c <_printf_float+0x2d4>)
   10f74:	4b7e      	ldr	r3, [pc, #504]	@ (11170 <_printf_float+0x2d8>)
   10f76:	e7d4      	b.n	10f22 <_printf_float+0x8a>
   10f78:	6863      	ldr	r3, [r4, #4]
   10f7a:	f00a 02df 	and.w	r2, sl, #223	@ 0xdf
   10f7e:	9206      	str	r2, [sp, #24]
   10f80:	1c5a      	adds	r2, r3, #1
   10f82:	d13b      	bne.n	10ffc <_printf_float+0x164>
   10f84:	2306      	movs	r3, #6
   10f86:	6063      	str	r3, [r4, #4]
   10f88:	f44b 6280 	orr.w	r2, fp, #1024	@ 0x400
   10f8c:	2300      	movs	r3, #0
   10f8e:	6022      	str	r2, [r4, #0]
   10f90:	9303      	str	r3, [sp, #12]
   10f92:	ab0a      	add	r3, sp, #40	@ 0x28
   10f94:	e9cd a301 	strd	sl, r3, [sp, #4]
   10f98:	ab09      	add	r3, sp, #36	@ 0x24
   10f9a:	9300      	str	r3, [sp, #0]
   10f9c:	6861      	ldr	r1, [r4, #4]
   10f9e:	ec49 8b10 	vmov	d0, r8, r9
   10fa2:	f10d 0323 	add.w	r3, sp, #35	@ 0x23
   10fa6:	4628      	mov	r0, r5
   10fa8:	f7ff fed6 	bl	10d58 <__cvt>
   10fac:	9b06      	ldr	r3, [sp, #24]
   10fae:	9909      	ldr	r1, [sp, #36]	@ 0x24
   10fb0:	2b47      	cmp	r3, #71	@ 0x47
   10fb2:	4680      	mov	r8, r0
   10fb4:	d129      	bne.n	1100a <_printf_float+0x172>
   10fb6:	1cc8      	adds	r0, r1, #3
   10fb8:	db02      	blt.n	10fc0 <_printf_float+0x128>
   10fba:	6863      	ldr	r3, [r4, #4]
   10fbc:	4299      	cmp	r1, r3
   10fbe:	dd41      	ble.n	11044 <_printf_float+0x1ac>
   10fc0:	f1aa 0a02 	sub.w	sl, sl, #2
   10fc4:	fa5f fa8a 	uxtb.w	sl, sl
   10fc8:	3901      	subs	r1, #1
   10fca:	4652      	mov	r2, sl
   10fcc:	f104 0050 	add.w	r0, r4, #80	@ 0x50
   10fd0:	9109      	str	r1, [sp, #36]	@ 0x24
   10fd2:	f7ff ff26 	bl	10e22 <__exponent>
   10fd6:	9a0a      	ldr	r2, [sp, #40]	@ 0x28
   10fd8:	1813      	adds	r3, r2, r0
   10fda:	2a01      	cmp	r2, #1
   10fdc:	4681      	mov	r9, r0
   10fde:	6123      	str	r3, [r4, #16]
   10fe0:	dc02      	bgt.n	10fe8 <_printf_float+0x150>
   10fe2:	6822      	ldr	r2, [r4, #0]
   10fe4:	07d2      	lsls	r2, r2, #31
   10fe6:	d501      	bpl.n	10fec <_printf_float+0x154>
   10fe8:	3301      	adds	r3, #1
   10fea:	6123      	str	r3, [r4, #16]
   10fec:	f89d 3023 	ldrb.w	r3, [sp, #35]	@ 0x23
   10ff0:	2b00      	cmp	r3, #0
   10ff2:	d0a2      	beq.n	10f3a <_printf_float+0xa2>
   10ff4:	232d      	movs	r3, #45	@ 0x2d
   10ff6:	f884 3043 	strb.w	r3, [r4, #67]	@ 0x43
   10ffa:	e79e      	b.n	10f3a <_printf_float+0xa2>
   10ffc:	9a06      	ldr	r2, [sp, #24]
   10ffe:	2a47      	cmp	r2, #71	@ 0x47
   11000:	d1c2      	bne.n	10f88 <_printf_float+0xf0>
   11002:	2b00      	cmp	r3, #0
   11004:	d1c0      	bne.n	10f88 <_printf_float+0xf0>
   11006:	2301      	movs	r3, #1
   11008:	e7bd      	b.n	10f86 <_printf_float+0xee>
   1100a:	f1ba 0f65 	cmp.w	sl, #101	@ 0x65
   1100e:	d9db      	bls.n	10fc8 <_printf_float+0x130>
   11010:	f1ba 0f66 	cmp.w	sl, #102	@ 0x66
   11014:	d118      	bne.n	11048 <_printf_float+0x1b0>
   11016:	2900      	cmp	r1, #0
   11018:	6863      	ldr	r3, [r4, #4]
   1101a:	dd0b      	ble.n	11034 <_printf_float+0x19c>
   1101c:	6121      	str	r1, [r4, #16]
   1101e:	b913      	cbnz	r3, 11026 <_printf_float+0x18e>
   11020:	6822      	ldr	r2, [r4, #0]
   11022:	07d0      	lsls	r0, r2, #31
   11024:	d502      	bpl.n	1102c <_printf_float+0x194>
   11026:	3301      	adds	r3, #1
   11028:	440b      	add	r3, r1
   1102a:	6123      	str	r3, [r4, #16]
   1102c:	65a1      	str	r1, [r4, #88]	@ 0x58
   1102e:	f04f 0900 	mov.w	r9, #0
   11032:	e7db      	b.n	10fec <_printf_float+0x154>
   11034:	b913      	cbnz	r3, 1103c <_printf_float+0x1a4>
   11036:	6822      	ldr	r2, [r4, #0]
   11038:	07d2      	lsls	r2, r2, #31
   1103a:	d501      	bpl.n	11040 <_printf_float+0x1a8>
   1103c:	3302      	adds	r3, #2
   1103e:	e7f4      	b.n	1102a <_printf_float+0x192>
   11040:	2301      	movs	r3, #1
   11042:	e7f2      	b.n	1102a <_printf_float+0x192>
   11044:	f04f 0a67 	mov.w	sl, #103	@ 0x67
   11048:	9b0a      	ldr	r3, [sp, #40]	@ 0x28
   1104a:	4299      	cmp	r1, r3
   1104c:	db05      	blt.n	1105a <_printf_float+0x1c2>
   1104e:	6823      	ldr	r3, [r4, #0]
   11050:	6121      	str	r1, [r4, #16]
   11052:	07d8      	lsls	r0, r3, #31
   11054:	d5ea      	bpl.n	1102c <_printf_float+0x194>
   11056:	1c4b      	adds	r3, r1, #1
   11058:	e7e7      	b.n	1102a <_printf_float+0x192>
   1105a:	2900      	cmp	r1, #0
   1105c:	bfd4      	ite	le
   1105e:	f1c1 0202 	rsble	r2, r1, #2
   11062:	2201      	movgt	r2, #1
   11064:	4413      	add	r3, r2
   11066:	e7e0      	b.n	1102a <_printf_float+0x192>
   11068:	6823      	ldr	r3, [r4, #0]
   1106a:	055a      	lsls	r2, r3, #21
   1106c:	d407      	bmi.n	1107e <_printf_float+0x1e6>
   1106e:	6923      	ldr	r3, [r4, #16]
   11070:	4642      	mov	r2, r8
   11072:	4631      	mov	r1, r6
   11074:	4628      	mov	r0, r5
   11076:	47b8      	blx	r7
   11078:	3001      	adds	r0, #1
   1107a:	d12b      	bne.n	110d4 <_printf_float+0x23c>
   1107c:	e767      	b.n	10f4e <_printf_float+0xb6>
   1107e:	f1ba 0f65 	cmp.w	sl, #101	@ 0x65
   11082:	f240 80dd 	bls.w	11240 <_printf_float+0x3a8>
   11086:	e9d4 0112 	ldrd	r0, r1, [r4, #72]	@ 0x48
   1108a:	2200      	movs	r2, #0
   1108c:	2300      	movs	r3, #0
   1108e:	f7ff fdf3 	bl	10c78 <__aeabi_dcmpeq>
   11092:	2800      	cmp	r0, #0
   11094:	d033      	beq.n	110fe <_printf_float+0x266>
   11096:	4a37      	ldr	r2, [pc, #220]	@ (11174 <_printf_float+0x2dc>)
   11098:	2301      	movs	r3, #1
   1109a:	4631      	mov	r1, r6
   1109c:	4628      	mov	r0, r5
   1109e:	47b8      	blx	r7
   110a0:	3001      	adds	r0, #1
   110a2:	f43f af54 	beq.w	10f4e <_printf_float+0xb6>
   110a6:	e9dd 3809 	ldrd	r3, r8, [sp, #36]	@ 0x24
   110aa:	4543      	cmp	r3, r8
   110ac:	db02      	blt.n	110b4 <_printf_float+0x21c>
   110ae:	6823      	ldr	r3, [r4, #0]
   110b0:	07d8      	lsls	r0, r3, #31
   110b2:	d50f      	bpl.n	110d4 <_printf_float+0x23c>
   110b4:	e9dd 2304 	ldrd	r2, r3, [sp, #16]
   110b8:	4631      	mov	r1, r6
   110ba:	4628      	mov	r0, r5
   110bc:	47b8      	blx	r7
   110be:	3001      	adds	r0, #1
   110c0:	f43f af45 	beq.w	10f4e <_printf_float+0xb6>
   110c4:	f04f 0900 	mov.w	r9, #0
   110c8:	f108 38ff 	add.w	r8, r8, #4294967295	@ 0xffffffff
   110cc:	f104 0a1a 	add.w	sl, r4, #26
   110d0:	45c8      	cmp	r8, r9
   110d2:	dc09      	bgt.n	110e8 <_printf_float+0x250>
   110d4:	6823      	ldr	r3, [r4, #0]
   110d6:	079b      	lsls	r3, r3, #30
   110d8:	f100 8103 	bmi.w	112e2 <_printf_float+0x44a>
   110dc:	68e0      	ldr	r0, [r4, #12]
   110de:	9b0b      	ldr	r3, [sp, #44]	@ 0x2c
   110e0:	4298      	cmp	r0, r3
   110e2:	bfb8      	it	lt
   110e4:	4618      	movlt	r0, r3
   110e6:	e734      	b.n	10f52 <_printf_float+0xba>
   110e8:	2301      	movs	r3, #1
   110ea:	4652      	mov	r2, sl
   110ec:	4631      	mov	r1, r6
   110ee:	4628      	mov	r0, r5
   110f0:	47b8      	blx	r7
   110f2:	3001      	adds	r0, #1
   110f4:	f43f af2b 	beq.w	10f4e <_printf_float+0xb6>
   110f8:	f109 0901 	add.w	r9, r9, #1
   110fc:	e7e8      	b.n	110d0 <_printf_float+0x238>
   110fe:	9b09      	ldr	r3, [sp, #36]	@ 0x24
   11100:	2b00      	cmp	r3, #0
   11102:	dc39      	bgt.n	11178 <_printf_float+0x2e0>
   11104:	4a1b      	ldr	r2, [pc, #108]	@ (11174 <_printf_float+0x2dc>)
   11106:	2301      	movs	r3, #1
   11108:	4631      	mov	r1, r6
   1110a:	4628      	mov	r0, r5
   1110c:	47b8      	blx	r7
   1110e:	3001      	adds	r0, #1
   11110:	f43f af1d 	beq.w	10f4e <_printf_float+0xb6>
   11114:	e9dd 3909 	ldrd	r3, r9, [sp, #36]	@ 0x24
   11118:	ea59 0303 	orrs.w	r3, r9, r3
   1111c:	d102      	bne.n	11124 <_printf_float+0x28c>
   1111e:	6823      	ldr	r3, [r4, #0]
   11120:	07d9      	lsls	r1, r3, #31
   11122:	d5d7      	bpl.n	110d4 <_printf_float+0x23c>
   11124:	e9dd 2304 	ldrd	r2, r3, [sp, #16]
   11128:	4631      	mov	r1, r6
   1112a:	4628      	mov	r0, r5
   1112c:	47b8      	blx	r7
   1112e:	3001      	adds	r0, #1
   11130:	f43f af0d 	beq.w	10f4e <_printf_float+0xb6>
   11134:	f04f 0a00 	mov.w	sl, #0
   11138:	f104 0b1a 	add.w	fp, r4, #26
   1113c:	9b09      	ldr	r3, [sp, #36]	@ 0x24
   1113e:	425b      	negs	r3, r3
   11140:	4553      	cmp	r3, sl
   11142:	dc01      	bgt.n	11148 <_printf_float+0x2b0>
   11144:	464b      	mov	r3, r9
   11146:	e793      	b.n	11070 <_printf_float+0x1d8>
   11148:	2301      	movs	r3, #1
   1114a:	465a      	mov	r2, fp
   1114c:	4631      	mov	r1, r6
   1114e:	4628      	mov	r0, r5
   11150:	47b8      	blx	r7
   11152:	3001      	adds	r0, #1
   11154:	f43f aefb 	beq.w	10f4e <_printf_float+0xb6>
   11158:	f10a 0a01 	add.w	sl, sl, #1
   1115c:	e7ee      	b.n	1113c <_printf_float+0x2a4>
   1115e:	bf00      	nop
   11160:	7fefffff 	svcvc	0x00efffff
   11164:	00014044 	andeq	r4, r1, r4, asr #32
   11168:	00014040 	andeq	r4, r1, r0, asr #32
   1116c:	0001404c 	andeq	r4, r1, ip, asr #32
   11170:	00014048 	andeq	r4, r1, r8, asr #32
   11174:	00014050 	andeq	r4, r1, r0, asr r0
   11178:	6da3      	ldr	r3, [r4, #88]	@ 0x58
   1117a:	f8dd a028 	ldr.w	sl, [sp, #40]	@ 0x28
   1117e:	4553      	cmp	r3, sl
   11180:	bfa8      	it	ge
   11182:	4653      	movge	r3, sl
   11184:	2b00      	cmp	r3, #0
   11186:	4699      	mov	r9, r3
   11188:	dc36      	bgt.n	111f8 <_printf_float+0x360>
   1118a:	f04f 0b00 	mov.w	fp, #0
   1118e:	ea29 79e9 	bic.w	r9, r9, r9, asr #31
   11192:	f104 021a 	add.w	r2, r4, #26
   11196:	6da3      	ldr	r3, [r4, #88]	@ 0x58
   11198:	9306      	str	r3, [sp, #24]
   1119a:	eba3 0309 	sub.w	r3, r3, r9
   1119e:	455b      	cmp	r3, fp
   111a0:	dc31      	bgt.n	11206 <_printf_float+0x36e>
   111a2:	9b09      	ldr	r3, [sp, #36]	@ 0x24
   111a4:	459a      	cmp	sl, r3
   111a6:	dc3a      	bgt.n	1121e <_printf_float+0x386>
   111a8:	6823      	ldr	r3, [r4, #0]
   111aa:	07da      	lsls	r2, r3, #31
   111ac:	d437      	bmi.n	1121e <_printf_float+0x386>
   111ae:	9b09      	ldr	r3, [sp, #36]	@ 0x24
   111b0:	ebaa 0903 	sub.w	r9, sl, r3
   111b4:	9b06      	ldr	r3, [sp, #24]
   111b6:	ebaa 0303 	sub.w	r3, sl, r3
   111ba:	4599      	cmp	r9, r3
   111bc:	bfa8      	it	ge
   111be:	4699      	movge	r9, r3
   111c0:	f1b9 0f00 	cmp.w	r9, #0
   111c4:	dc33      	bgt.n	1122e <_printf_float+0x396>
   111c6:	f04f 0800 	mov.w	r8, #0
   111ca:	ea29 79e9 	bic.w	r9, r9, r9, asr #31
   111ce:	f104 0b1a 	add.w	fp, r4, #26
   111d2:	9b09      	ldr	r3, [sp, #36]	@ 0x24
   111d4:	ebaa 0303 	sub.w	r3, sl, r3
   111d8:	eba3 0309 	sub.w	r3, r3, r9
   111dc:	4543      	cmp	r3, r8
   111de:	f77f af79 	ble.w	110d4 <_printf_float+0x23c>
   111e2:	2301      	movs	r3, #1
   111e4:	465a      	mov	r2, fp
   111e6:	4631      	mov	r1, r6
   111e8:	4628      	mov	r0, r5
   111ea:	47b8      	blx	r7
   111ec:	3001      	adds	r0, #1
   111ee:	f43f aeae 	beq.w	10f4e <_printf_float+0xb6>
   111f2:	f108 0801 	add.w	r8, r8, #1
   111f6:	e7ec      	b.n	111d2 <_printf_float+0x33a>
   111f8:	4642      	mov	r2, r8
   111fa:	4631      	mov	r1, r6
   111fc:	4628      	mov	r0, r5
   111fe:	47b8      	blx	r7
   11200:	3001      	adds	r0, #1
   11202:	d1c2      	bne.n	1118a <_printf_float+0x2f2>
   11204:	e6a3      	b.n	10f4e <_printf_float+0xb6>
   11206:	2301      	movs	r3, #1
   11208:	4631      	mov	r1, r6
   1120a:	4628      	mov	r0, r5
   1120c:	9206      	str	r2, [sp, #24]
   1120e:	47b8      	blx	r7
   11210:	3001      	adds	r0, #1
   11212:	f43f ae9c 	beq.w	10f4e <_printf_float+0xb6>
   11216:	9a06      	ldr	r2, [sp, #24]
   11218:	f10b 0b01 	add.w	fp, fp, #1
   1121c:	e7bb      	b.n	11196 <_printf_float+0x2fe>
   1121e:	e9dd 2304 	ldrd	r2, r3, [sp, #16]
   11222:	4631      	mov	r1, r6
   11224:	4628      	mov	r0, r5
   11226:	47b8      	blx	r7
   11228:	3001      	adds	r0, #1
   1122a:	d1c0      	bne.n	111ae <_printf_float+0x316>
   1122c:	e68f      	b.n	10f4e <_printf_float+0xb6>
   1122e:	9a06      	ldr	r2, [sp, #24]
   11230:	464b      	mov	r3, r9
   11232:	4442      	add	r2, r8
   11234:	4631      	mov	r1, r6
   11236:	4628      	mov	r0, r5
   11238:	47b8      	blx	r7
   1123a:	3001      	adds	r0, #1
   1123c:	d1c3      	bne.n	111c6 <_printf_float+0x32e>
   1123e:	e686      	b.n	10f4e <_printf_float+0xb6>
   11240:	f8dd a028 	ldr.w	sl, [sp, #40]	@ 0x28
   11244:	f1ba 0f01 	cmp.w	sl, #1
   11248:	dc01      	bgt.n	1124e <_printf_float+0x3b6>
   1124a:	07db      	lsls	r3, r3, #31
   1124c:	d536      	bpl.n	112bc <_printf_float+0x424>
   1124e:	2301      	movs	r3, #1
   11250:	4642      	mov	r2, r8
   11252:	4631      	mov	r1, r6
   11254:	4628      	mov	r0, r5
   11256:	47b8      	blx	r7
   11258:	3001      	adds	r0, #1
   1125a:	f43f ae78 	beq.w	10f4e <_printf_float+0xb6>
   1125e:	e9dd 2304 	ldrd	r2, r3, [sp, #16]
   11262:	4631      	mov	r1, r6
   11264:	4628      	mov	r0, r5
   11266:	47b8      	blx	r7
   11268:	3001      	adds	r0, #1
   1126a:	f43f ae70 	beq.w	10f4e <_printf_float+0xb6>
   1126e:	e9d4 0112 	ldrd	r0, r1, [r4, #72]	@ 0x48
   11272:	2200      	movs	r2, #0
   11274:	2300      	movs	r3, #0
   11276:	f10a 3aff 	add.w	sl, sl, #4294967295	@ 0xffffffff
   1127a:	f7ff fcfd 	bl	10c78 <__aeabi_dcmpeq>
   1127e:	b9c0      	cbnz	r0, 112b2 <_printf_float+0x41a>
   11280:	4653      	mov	r3, sl
   11282:	f108 0201 	add.w	r2, r8, #1
   11286:	4631      	mov	r1, r6
   11288:	4628      	mov	r0, r5
   1128a:	47b8      	blx	r7
   1128c:	3001      	adds	r0, #1
   1128e:	d10c      	bne.n	112aa <_printf_float+0x412>
   11290:	e65d      	b.n	10f4e <_printf_float+0xb6>
   11292:	2301      	movs	r3, #1
   11294:	465a      	mov	r2, fp
   11296:	4631      	mov	r1, r6
   11298:	4628      	mov	r0, r5
   1129a:	47b8      	blx	r7
   1129c:	3001      	adds	r0, #1
   1129e:	f43f ae56 	beq.w	10f4e <_printf_float+0xb6>
   112a2:	f108 0801 	add.w	r8, r8, #1
   112a6:	45d0      	cmp	r8, sl
   112a8:	dbf3      	blt.n	11292 <_printf_float+0x3fa>
   112aa:	464b      	mov	r3, r9
   112ac:	f104 0250 	add.w	r2, r4, #80	@ 0x50
   112b0:	e6df      	b.n	11072 <_printf_float+0x1da>
   112b2:	f04f 0800 	mov.w	r8, #0
   112b6:	f104 0b1a 	add.w	fp, r4, #26
   112ba:	e7f4      	b.n	112a6 <_printf_float+0x40e>
   112bc:	2301      	movs	r3, #1
   112be:	4642      	mov	r2, r8
   112c0:	e7e1      	b.n	11286 <_printf_float+0x3ee>
   112c2:	2301      	movs	r3, #1
   112c4:	464a      	mov	r2, r9
   112c6:	4631      	mov	r1, r6
   112c8:	4628      	mov	r0, r5
   112ca:	47b8      	blx	r7
   112cc:	3001      	adds	r0, #1
   112ce:	f43f ae3e 	beq.w	10f4e <_printf_float+0xb6>
   112d2:	f108 0801 	add.w	r8, r8, #1
   112d6:	68e3      	ldr	r3, [r4, #12]
   112d8:	990b      	ldr	r1, [sp, #44]	@ 0x2c
   112da:	1a5b      	subs	r3, r3, r1
   112dc:	4543      	cmp	r3, r8
   112de:	dcf0      	bgt.n	112c2 <_printf_float+0x42a>
   112e0:	e6fc      	b.n	110dc <_printf_float+0x244>
   112e2:	f04f 0800 	mov.w	r8, #0
   112e6:	f104 0919 	add.w	r9, r4, #25
   112ea:	e7f4      	b.n	112d6 <_printf_float+0x43e>

Disassembly of section .text._printf_common:

000112ec <_printf_common>:
   112ec:	e92d 47f0 	stmdb	sp!, {r4, r5, r6, r7, r8, r9, sl, lr}
   112f0:	4616      	mov	r6, r2
   112f2:	4698      	mov	r8, r3
   112f4:	688a      	ldr	r2, [r1, #8]
   112f6:	690b      	ldr	r3, [r1, #16]
   112f8:	f8dd 9020 	ldr.w	r9, [sp, #32]
   112fc:	4293      	cmp	r3, r2
   112fe:	bfb8      	it	lt
   11300:	4613      	movlt	r3, r2
   11302:	6033      	str	r3, [r6, #0]
   11304:	f891 2043 	ldrb.w	r2, [r1, #67]	@ 0x43
   11308:	4607      	mov	r7, r0
   1130a:	460c      	mov	r4, r1
   1130c:	b10a      	cbz	r2, 11312 <_printf_common+0x26>
   1130e:	3301      	adds	r3, #1
   11310:	6033      	str	r3, [r6, #0]
   11312:	6823      	ldr	r3, [r4, #0]
   11314:	0699      	lsls	r1, r3, #26
   11316:	bf42      	ittt	mi
   11318:	6833      	ldrmi	r3, [r6, #0]
   1131a:	3302      	addmi	r3, #2
   1131c:	6033      	strmi	r3, [r6, #0]
   1131e:	6825      	ldr	r5, [r4, #0]
   11320:	f015 0506 	ands.w	r5, r5, #6
   11324:	d106      	bne.n	11334 <_printf_common+0x48>
   11326:	f104 0a19 	add.w	sl, r4, #25
   1132a:	68e3      	ldr	r3, [r4, #12]
   1132c:	6832      	ldr	r2, [r6, #0]
   1132e:	1a9b      	subs	r3, r3, r2
   11330:	42ab      	cmp	r3, r5
   11332:	dc26      	bgt.n	11382 <_printf_common+0x96>
   11334:	f894 3043 	ldrb.w	r3, [r4, #67]	@ 0x43
   11338:	6822      	ldr	r2, [r4, #0]
   1133a:	3b00      	subs	r3, #0
   1133c:	bf18      	it	ne
   1133e:	2301      	movne	r3, #1
   11340:	0692      	lsls	r2, r2, #26
   11342:	d42b      	bmi.n	1139c <_printf_common+0xb0>
   11344:	f104 0243 	add.w	r2, r4, #67	@ 0x43
   11348:	4641      	mov	r1, r8
   1134a:	4638      	mov	r0, r7
   1134c:	47c8      	blx	r9
   1134e:	3001      	adds	r0, #1
   11350:	d01e      	beq.n	11390 <_printf_common+0xa4>
   11352:	6823      	ldr	r3, [r4, #0]
   11354:	6922      	ldr	r2, [r4, #16]
   11356:	f003 0306 	and.w	r3, r3, #6
   1135a:	2b04      	cmp	r3, #4
   1135c:	bf02      	ittt	eq
   1135e:	68e5      	ldreq	r5, [r4, #12]
   11360:	6833      	ldreq	r3, [r6, #0]
   11362:	1aed      	subeq	r5, r5, r3
   11364:	68a3      	ldr	r3, [r4, #8]
   11366:	bf0c      	ite	eq
   11368:	ea25 75e5 	biceq.w	r5, r5, r5, asr #31
   1136c:	2500      	movne	r5, #0
   1136e:	4293      	cmp	r3, r2
   11370:	bfc4      	itt	gt
   11372:	1a9b      	subgt	r3, r3, r2
   11374:	18ed      	addgt	r5, r5, r3
   11376:	2600      	movs	r6, #0
   11378:	341a      	adds	r4, #26
   1137a:	42b5      	cmp	r5, r6
   1137c:	d11a      	bne.n	113b4 <_printf_common+0xc8>
   1137e:	2000      	movs	r0, #0
   11380:	e008      	b.n	11394 <_printf_common+0xa8>
   11382:	2301      	movs	r3, #1
   11384:	4652      	mov	r2, sl
   11386:	4641      	mov	r1, r8
   11388:	4638      	mov	r0, r7
   1138a:	47c8      	blx	r9
   1138c:	3001      	adds	r0, #1
   1138e:	d103      	bne.n	11398 <_printf_common+0xac>
   11390:	f04f 30ff 	mov.w	r0, #4294967295	@ 0xffffffff
   11394:	e8bd 87f0 	ldmia.w	sp!, {r4, r5, r6, r7, r8, r9, sl, pc}
   11398:	3501      	adds	r5, #1
   1139a:	e7c6      	b.n	1132a <_printf_common+0x3e>
   1139c:	18e1      	adds	r1, r4, r3
   1139e:	1c5a      	adds	r2, r3, #1
   113a0:	2030      	movs	r0, #48	@ 0x30
   113a2:	f881 0043 	strb.w	r0, [r1, #67]	@ 0x43
   113a6:	4422      	add	r2, r4
   113a8:	f894 1045 	ldrb.w	r1, [r4, #69]	@ 0x45
   113ac:	f882 1043 	strb.w	r1, [r2, #67]	@ 0x43
   113b0:	3302      	adds	r3, #2
   113b2:	e7c7      	b.n	11344 <_printf_common+0x58>
   113b4:	2301      	movs	r3, #1
   113b6:	4622      	mov	r2, r4
   113b8:	4641      	mov	r1, r8
   113ba:	4638      	mov	r0, r7
   113bc:	47c8      	blx	r9
   113be:	3001      	adds	r0, #1
   113c0:	d0e6      	beq.n	11390 <_printf_common+0xa4>
   113c2:	3601      	adds	r6, #1
   113c4:	e7d9      	b.n	1137a <_printf_common+0x8e>

Disassembly of section .text._printf_i:

000113c8 <_printf_i>:
   113c8:	e92d 47ff 	stmdb	sp!, {r0, r1, r2, r3, r4, r5, r6, r7, r8, r9, sl, lr}
   113cc:	7e0f      	ldrb	r7, [r1, #24]
   113ce:	9e0c      	ldr	r6, [sp, #48]	@ 0x30
   113d0:	2f78      	cmp	r7, #120	@ 0x78
   113d2:	4691      	mov	r9, r2
   113d4:	4680      	mov	r8, r0
   113d6:	460c      	mov	r4, r1
   113d8:	469a      	mov	sl, r3
   113da:	f101 0243 	add.w	r2, r1, #67	@ 0x43
   113de:	d807      	bhi.n	113f0 <_printf_i+0x28>
   113e0:	2f62      	cmp	r7, #98	@ 0x62
   113e2:	d80a      	bhi.n	113fa <_printf_i+0x32>
   113e4:	2f00      	cmp	r7, #0
   113e6:	f000 80d1 	beq.w	1158c <_printf_i+0x1c4>
   113ea:	2f58      	cmp	r7, #88	@ 0x58
   113ec:	f000 80b8 	beq.w	11560 <_printf_i+0x198>
   113f0:	f104 0642 	add.w	r6, r4, #66	@ 0x42
   113f4:	f884 7042 	strb.w	r7, [r4, #66]	@ 0x42
   113f8:	e03a      	b.n	11470 <_printf_i+0xa8>
   113fa:	f1a7 0363 	sub.w	r3, r7, #99	@ 0x63
   113fe:	2b15      	cmp	r3, #21
   11400:	d8f6      	bhi.n	113f0 <_printf_i+0x28>
   11402:	a101      	add	r1, pc, #4	@ (adr r1, 11408 <_printf_i+0x40>)
   11404:	f851 f023 	ldr.w	pc, [r1, r3, lsl #2]
   11408:	00011461 	andeq	r1, r1, r1, ror #8
   1140c:	00011475 	andeq	r1, r1, r5, ror r4
   11410:	000113f1 	strdeq	r1, [r1], -r1	@ <UNPREDICTABLE>
   11414:	000113f1 	strdeq	r1, [r1], -r1	@ <UNPREDICTABLE>
   11418:	000113f1 	strdeq	r1, [r1], -r1	@ <UNPREDICTABLE>
   1141c:	000113f1 	strdeq	r1, [r1], -r1	@ <UNPREDICTABLE>
   11420:	00011475 	andeq	r1, r1, r5, ror r4
   11424:	000113f1 	strdeq	r1, [r1], -r1	@ <UNPREDICTABLE>
   11428:	000113f1 	strdeq	r1, [r1], -r1	@ <UNPREDICTABLE>
   1142c:	000113f1 	strdeq	r1, [r1], -r1	@ <UNPREDICTABLE>
   11430:	000113f1 	strdeq	r1, [r1], -r1	@ <UNPREDICTABLE>
   11434:	00011573 	andeq	r1, r1, r3, ror r5
   11438:	0001149f 	muleq	r1, pc, r4	@ <UNPREDICTABLE>
   1143c:	0001152d 	andeq	r1, r1, sp, lsr #10
   11440:	000113f1 	strdeq	r1, [r1], -r1	@ <UNPREDICTABLE>
   11444:	000113f1 	strdeq	r1, [r1], -r1	@ <UNPREDICTABLE>
   11448:	00011595 	muleq	r1, r5, r5
   1144c:	000113f1 	strdeq	r1, [r1], -r1	@ <UNPREDICTABLE>
   11450:	0001149f 	muleq	r1, pc, r4	@ <UNPREDICTABLE>
   11454:	000113f1 	strdeq	r1, [r1], -r1	@ <UNPREDICTABLE>
   11458:	000113f1 	strdeq	r1, [r1], -r1	@ <UNPREDICTABLE>
   1145c:	00011535 	andeq	r1, r1, r5, lsr r5
   11460:	6833      	ldr	r3, [r6, #0]
   11462:	1d1a      	adds	r2, r3, #4
   11464:	681b      	ldr	r3, [r3, #0]
   11466:	6032      	str	r2, [r6, #0]
   11468:	f104 0642 	add.w	r6, r4, #66	@ 0x42
   1146c:	f884 3042 	strb.w	r3, [r4, #66]	@ 0x42
   11470:	2301      	movs	r3, #1
   11472:	e09c      	b.n	115ae <_printf_i+0x1e6>
   11474:	6833      	ldr	r3, [r6, #0]
   11476:	6820      	ldr	r0, [r4, #0]
   11478:	1d19      	adds	r1, r3, #4
   1147a:	6031      	str	r1, [r6, #0]
   1147c:	0606      	lsls	r6, r0, #24
   1147e:	d501      	bpl.n	11484 <_printf_i+0xbc>
   11480:	681d      	ldr	r5, [r3, #0]
   11482:	e003      	b.n	1148c <_printf_i+0xc4>
   11484:	0645      	lsls	r5, r0, #25
   11486:	d5fb      	bpl.n	11480 <_printf_i+0xb8>
   11488:	f9b3 5000 	ldrsh.w	r5, [r3]
   1148c:	2d00      	cmp	r5, #0
   1148e:	da03      	bge.n	11498 <_printf_i+0xd0>
   11490:	232d      	movs	r3, #45	@ 0x2d
   11492:	426d      	negs	r5, r5
   11494:	f884 3043 	strb.w	r3, [r4, #67]	@ 0x43
   11498:	4858      	ldr	r0, [pc, #352]	@ (115fc <_printf_i+0x234>)
   1149a:	230a      	movs	r3, #10
   1149c:	e011      	b.n	114c2 <_printf_i+0xfa>
   1149e:	6821      	ldr	r1, [r4, #0]
   114a0:	6833      	ldr	r3, [r6, #0]
   114a2:	0608      	lsls	r0, r1, #24
   114a4:	f853 5b04 	ldr.w	r5, [r3], #4
   114a8:	d402      	bmi.n	114b0 <_printf_i+0xe8>
   114aa:	0649      	lsls	r1, r1, #25
   114ac:	bf48      	it	mi
   114ae:	b2ad      	uxthmi	r5, r5
   114b0:	2f6f      	cmp	r7, #111	@ 0x6f
   114b2:	4852      	ldr	r0, [pc, #328]	@ (115fc <_printf_i+0x234>)
   114b4:	6033      	str	r3, [r6, #0]
   114b6:	bf14      	ite	ne
   114b8:	230a      	movne	r3, #10
   114ba:	2308      	moveq	r3, #8
   114bc:	2100      	movs	r1, #0
   114be:	f884 1043 	strb.w	r1, [r4, #67]	@ 0x43
   114c2:	6866      	ldr	r6, [r4, #4]
   114c4:	60a6      	str	r6, [r4, #8]
   114c6:	2e00      	cmp	r6, #0
   114c8:	db05      	blt.n	114d6 <_printf_i+0x10e>
   114ca:	6821      	ldr	r1, [r4, #0]
   114cc:	432e      	orrs	r6, r5
   114ce:	f021 0104 	bic.w	r1, r1, #4
   114d2:	6021      	str	r1, [r4, #0]
   114d4:	d04b      	beq.n	1156e <_printf_i+0x1a6>
   114d6:	4616      	mov	r6, r2
   114d8:	fbb5 f1f3 	udiv	r1, r5, r3
   114dc:	fb03 5711 	mls	r7, r3, r1, r5
   114e0:	5dc7      	ldrb	r7, [r0, r7]
   114e2:	f806 7d01 	strb.w	r7, [r6, #-1]!
   114e6:	462f      	mov	r7, r5
   114e8:	42bb      	cmp	r3, r7
   114ea:	460d      	mov	r5, r1
   114ec:	d9f4      	bls.n	114d8 <_printf_i+0x110>
   114ee:	2b08      	cmp	r3, #8
   114f0:	d10b      	bne.n	1150a <_printf_i+0x142>
   114f2:	6823      	ldr	r3, [r4, #0]
   114f4:	07df      	lsls	r7, r3, #31
   114f6:	d508      	bpl.n	1150a <_printf_i+0x142>
   114f8:	6923      	ldr	r3, [r4, #16]
   114fa:	6861      	ldr	r1, [r4, #4]
   114fc:	4299      	cmp	r1, r3
   114fe:	bfde      	ittt	le
   11500:	2330      	movle	r3, #48	@ 0x30
   11502:	f806 3c01 	strble.w	r3, [r6, #-1]
   11506:	f106 36ff 	addle.w	r6, r6, #4294967295	@ 0xffffffff
   1150a:	1b92      	subs	r2, r2, r6
   1150c:	6122      	str	r2, [r4, #16]
   1150e:	f8cd a000 	str.w	sl, [sp]
   11512:	464b      	mov	r3, r9
   11514:	aa03      	add	r2, sp, #12
   11516:	4621      	mov	r1, r4
   11518:	4640      	mov	r0, r8
   1151a:	f7ff fee7 	bl	112ec <_printf_common>
   1151e:	3001      	adds	r0, #1
   11520:	d14a      	bne.n	115b8 <_printf_i+0x1f0>
   11522:	f04f 30ff 	mov.w	r0, #4294967295	@ 0xffffffff
   11526:	b004      	add	sp, #16
   11528:	e8bd 87f0 	ldmia.w	sp!, {r4, r5, r6, r7, r8, r9, sl, pc}
   1152c:	6823      	ldr	r3, [r4, #0]
   1152e:	f043 0320 	orr.w	r3, r3, #32
   11532:	6023      	str	r3, [r4, #0]
   11534:	4832      	ldr	r0, [pc, #200]	@ (11600 <_printf_i+0x238>)
   11536:	2778      	movs	r7, #120	@ 0x78
   11538:	f884 7045 	strb.w	r7, [r4, #69]	@ 0x45
   1153c:	6823      	ldr	r3, [r4, #0]
   1153e:	6831      	ldr	r1, [r6, #0]
   11540:	061f      	lsls	r7, r3, #24
   11542:	f851 5b04 	ldr.w	r5, [r1], #4
   11546:	d402      	bmi.n	1154e <_printf_i+0x186>
   11548:	065f      	lsls	r7, r3, #25
   1154a:	bf48      	it	mi
   1154c:	b2ad      	uxthmi	r5, r5
   1154e:	6031      	str	r1, [r6, #0]
   11550:	07d9      	lsls	r1, r3, #31
   11552:	bf44      	itt	mi
   11554:	f043 0320 	orrmi.w	r3, r3, #32
   11558:	6023      	strmi	r3, [r4, #0]
   1155a:	b11d      	cbz	r5, 11564 <_printf_i+0x19c>
   1155c:	2310      	movs	r3, #16
   1155e:	e7ad      	b.n	114bc <_printf_i+0xf4>
   11560:	4826      	ldr	r0, [pc, #152]	@ (115fc <_printf_i+0x234>)
   11562:	e7e9      	b.n	11538 <_printf_i+0x170>
   11564:	6823      	ldr	r3, [r4, #0]
   11566:	f023 0320 	bic.w	r3, r3, #32
   1156a:	6023      	str	r3, [r4, #0]
   1156c:	e7f6      	b.n	1155c <_printf_i+0x194>
   1156e:	4616      	mov	r6, r2
   11570:	e7bd      	b.n	114ee <_printf_i+0x126>
   11572:	6833      	ldr	r3, [r6, #0]
   11574:	6825      	ldr	r5, [r4, #0]
   11576:	6961      	ldr	r1, [r4, #20]
   11578:	1d18      	adds	r0, r3, #4
   1157a:	6030      	str	r0, [r6, #0]
   1157c:	062e      	lsls	r6, r5, #24
   1157e:	681b      	ldr	r3, [r3, #0]
   11580:	d501      	bpl.n	11586 <_printf_i+0x1be>
   11582:	6019      	str	r1, [r3, #0]
   11584:	e002      	b.n	1158c <_printf_i+0x1c4>
   11586:	0668      	lsls	r0, r5, #25
   11588:	d5fb      	bpl.n	11582 <_printf_i+0x1ba>
   1158a:	8019      	strh	r1, [r3, #0]
   1158c:	2300      	movs	r3, #0
   1158e:	6123      	str	r3, [r4, #16]
   11590:	4616      	mov	r6, r2
   11592:	e7bc      	b.n	1150e <_printf_i+0x146>
   11594:	6833      	ldr	r3, [r6, #0]
   11596:	1d1a      	adds	r2, r3, #4
   11598:	6032      	str	r2, [r6, #0]
   1159a:	681e      	ldr	r6, [r3, #0]
   1159c:	6862      	ldr	r2, [r4, #4]
   1159e:	2100      	movs	r1, #0
   115a0:	4630      	mov	r0, r6
   115a2:	f7fe fd45 	bl	10030 <memchr>
   115a6:	b108      	cbz	r0, 115ac <_printf_i+0x1e4>
   115a8:	1b80      	subs	r0, r0, r6
   115aa:	6060      	str	r0, [r4, #4]
   115ac:	6863      	ldr	r3, [r4, #4]
   115ae:	6123      	str	r3, [r4, #16]
   115b0:	2300      	movs	r3, #0
   115b2:	f884 3043 	strb.w	r3, [r4, #67]	@ 0x43
   115b6:	e7aa      	b.n	1150e <_printf_i+0x146>
   115b8:	6923      	ldr	r3, [r4, #16]
   115ba:	4632      	mov	r2, r6
   115bc:	4649      	mov	r1, r9
   115be:	4640      	mov	r0, r8
   115c0:	47d0      	blx	sl
   115c2:	3001      	adds	r0, #1
   115c4:	d0ad      	beq.n	11522 <_printf_i+0x15a>
   115c6:	6823      	ldr	r3, [r4, #0]
   115c8:	079b      	lsls	r3, r3, #30
   115ca:	d413      	bmi.n	115f4 <_printf_i+0x22c>
   115cc:	68e0      	ldr	r0, [r4, #12]
   115ce:	9b03      	ldr	r3, [sp, #12]
   115d0:	4298      	cmp	r0, r3
   115d2:	bfb8      	it	lt
   115d4:	4618      	movlt	r0, r3
   115d6:	e7a6      	b.n	11526 <_printf_i+0x15e>
   115d8:	2301      	movs	r3, #1
   115da:	4632      	mov	r2, r6
   115dc:	4649      	mov	r1, r9
   115de:	4640      	mov	r0, r8
   115e0:	47d0      	blx	sl
   115e2:	3001      	adds	r0, #1
   115e4:	d09d      	beq.n	11522 <_printf_i+0x15a>
   115e6:	3501      	adds	r5, #1
   115e8:	68e3      	ldr	r3, [r4, #12]
   115ea:	9903      	ldr	r1, [sp, #12]
   115ec:	1a5b      	subs	r3, r3, r1
   115ee:	42ab      	cmp	r3, r5
   115f0:	dcf2      	bgt.n	115d8 <_printf_i+0x210>
   115f2:	e7eb      	b.n	115cc <_printf_i+0x204>
   115f4:	2500      	movs	r5, #0
   115f6:	f104 0619 	add.w	r6, r4, #25
   115fa:	e7f5      	b.n	115e8 <_printf_i+0x220>
   115fc:	00014052 	andeq	r4, r1, r2, asr r0
   11600:	00014063 	andeq	r4, r1, r3, rrx

Disassembly of section .text.quorem:

00011604 <quorem>:
   11604:	e92d 4ff7 	stmdb	sp!, {r0, r1, r2, r4, r5, r6, r7, r8, r9, sl, fp, lr}
   11608:	6903      	ldr	r3, [r0, #16]
   1160a:	690c      	ldr	r4, [r1, #16]
   1160c:	42a3      	cmp	r3, r4
   1160e:	4607      	mov	r7, r0
   11610:	db7e      	blt.n	11710 <quorem+0x10c>
   11612:	3c01      	subs	r4, #1
   11614:	f101 0814 	add.w	r8, r1, #20
   11618:	00a3      	lsls	r3, r4, #2
   1161a:	f100 0514 	add.w	r5, r0, #20
   1161e:	9300      	str	r3, [sp, #0]
   11620:	eb05 0384 	add.w	r3, r5, r4, lsl #2
   11624:	9301      	str	r3, [sp, #4]
   11626:	f858 3024 	ldr.w	r3, [r8, r4, lsl #2]
   1162a:	f855 2024 	ldr.w	r2, [r5, r4, lsl #2]
   1162e:	3301      	adds	r3, #1
   11630:	429a      	cmp	r2, r3
   11632:	eb08 0984 	add.w	r9, r8, r4, lsl #2
   11636:	fbb2 f6f3 	udiv	r6, r2, r3
   1163a:	d32e      	bcc.n	1169a <quorem+0x96>
   1163c:	f04f 0a00 	mov.w	sl, #0
   11640:	46c4      	mov	ip, r8
   11642:	46ae      	mov	lr, r5
   11644:	46d3      	mov	fp, sl
   11646:	f85c 3b04 	ldr.w	r3, [ip], #4
   1164a:	b298      	uxth	r0, r3
   1164c:	fb06 a000 	mla	r0, r6, r0, sl
   11650:	0c02      	lsrs	r2, r0, #16
   11652:	0c1b      	lsrs	r3, r3, #16
   11654:	fb06 2303 	mla	r3, r6, r3, r2
   11658:	f8de 2000 	ldr.w	r2, [lr]
   1165c:	b280      	uxth	r0, r0
   1165e:	b292      	uxth	r2, r2
   11660:	1a12      	subs	r2, r2, r0
   11662:	445a      	add	r2, fp
   11664:	f8de 0000 	ldr.w	r0, [lr]
   11668:	ea4f 4a13 	mov.w	sl, r3, lsr #16
   1166c:	b29b      	uxth	r3, r3
   1166e:	ebc3 4322 	rsb	r3, r3, r2, asr #16
   11672:	eb03 4310 	add.w	r3, r3, r0, lsr #16
   11676:	b292      	uxth	r2, r2
   11678:	ea42 4203 	orr.w	r2, r2, r3, lsl #16
   1167c:	45e1      	cmp	r9, ip
   1167e:	f84e 2b04 	str.w	r2, [lr], #4
   11682:	ea4f 4b23 	mov.w	fp, r3, asr #16
   11686:	d2de      	bcs.n	11646 <quorem+0x42>
   11688:	9b00      	ldr	r3, [sp, #0]
   1168a:	58eb      	ldr	r3, [r5, r3]
   1168c:	b92b      	cbnz	r3, 1169a <quorem+0x96>
   1168e:	9b01      	ldr	r3, [sp, #4]
   11690:	3b04      	subs	r3, #4
   11692:	429d      	cmp	r5, r3
   11694:	461a      	mov	r2, r3
   11696:	d32f      	bcc.n	116f8 <quorem+0xf4>
   11698:	613c      	str	r4, [r7, #16]
   1169a:	4638      	mov	r0, r7
   1169c:	f001 f9ca 	bl	12a34 <__mcmp>
   116a0:	2800      	cmp	r0, #0
   116a2:	db25      	blt.n	116f0 <quorem+0xec>
   116a4:	4629      	mov	r1, r5
   116a6:	2000      	movs	r0, #0
   116a8:	f858 2b04 	ldr.w	r2, [r8], #4
   116ac:	f8d1 c000 	ldr.w	ip, [r1]
   116b0:	fa1f fe82 	uxth.w	lr, r2
   116b4:	fa1f f38c 	uxth.w	r3, ip
   116b8:	eba3 030e 	sub.w	r3, r3, lr
   116bc:	4403      	add	r3, r0
   116be:	0c12      	lsrs	r2, r2, #16
   116c0:	ebc2 4223 	rsb	r2, r2, r3, asr #16
   116c4:	eb02 421c 	add.w	r2, r2, ip, lsr #16
   116c8:	b29b      	uxth	r3, r3
   116ca:	ea43 4302 	orr.w	r3, r3, r2, lsl #16
   116ce:	45c1      	cmp	r9, r8
   116d0:	f841 3b04 	str.w	r3, [r1], #4
   116d4:	ea4f 4022 	mov.w	r0, r2, asr #16
   116d8:	d2e6      	bcs.n	116a8 <quorem+0xa4>
   116da:	f855 2024 	ldr.w	r2, [r5, r4, lsl #2]
   116de:	eb05 0384 	add.w	r3, r5, r4, lsl #2
   116e2:	b922      	cbnz	r2, 116ee <quorem+0xea>
   116e4:	3b04      	subs	r3, #4
   116e6:	429d      	cmp	r5, r3
   116e8:	461a      	mov	r2, r3
   116ea:	d30b      	bcc.n	11704 <quorem+0x100>
   116ec:	613c      	str	r4, [r7, #16]
   116ee:	3601      	adds	r6, #1
   116f0:	4630      	mov	r0, r6
   116f2:	b003      	add	sp, #12
   116f4:	e8bd 8ff0 	ldmia.w	sp!, {r4, r5, r6, r7, r8, r9, sl, fp, pc}
   116f8:	6812      	ldr	r2, [r2, #0]
   116fa:	3b04      	subs	r3, #4
   116fc:	2a00      	cmp	r2, #0
   116fe:	d1cb      	bne.n	11698 <quorem+0x94>
   11700:	3c01      	subs	r4, #1
   11702:	e7c6      	b.n	11692 <quorem+0x8e>
   11704:	6812      	ldr	r2, [r2, #0]
   11706:	3b04      	subs	r3, #4
   11708:	2a00      	cmp	r2, #0
   1170a:	d1ef      	bne.n	116ec <quorem+0xe8>
   1170c:	3c01      	subs	r4, #1
   1170e:	e7ea      	b.n	116e6 <quorem+0xe2>
   11710:	2000      	movs	r0, #0
   11712:	e7ee      	b.n	116f2 <quorem+0xee>

Disassembly of section .text._dtoa_r:

00011718 <_dtoa_r>:
   11718:	e92d 4ff0 	stmdb	sp!, {r4, r5, r6, r7, r8, r9, sl, fp, lr}
   1171c:	69c7      	ldr	r7, [r0, #28]
   1171e:	b099      	sub	sp, #100	@ 0x64
   11720:	ed8d 0b04 	vstr	d0, [sp, #16]
   11724:	ec55 4b10 	vmov	r4, r5, d0
   11728:	9e22      	ldr	r6, [sp, #136]	@ 0x88
   1172a:	9109      	str	r1, [sp, #36]	@ 0x24
   1172c:	4683      	mov	fp, r0
   1172e:	920e      	str	r2, [sp, #56]	@ 0x38
   11730:	9313      	str	r3, [sp, #76]	@ 0x4c
   11732:	b97f      	cbnz	r7, 11754 <_dtoa_r+0x3c>
   11734:	2010      	movs	r0, #16
   11736:	f000 fdc1 	bl	122bc <malloc>
   1173a:	4602      	mov	r2, r0
   1173c:	f8cb 001c 	str.w	r0, [fp, #28]
   11740:	b920      	cbnz	r0, 1174c <_dtoa_r+0x34>
   11742:	4ba5      	ldr	r3, [pc, #660]	@ (119d8 <_dtoa_r+0x2c0>)
   11744:	21ef      	movs	r1, #239	@ 0xef
   11746:	48a5      	ldr	r0, [pc, #660]	@ (119dc <_dtoa_r+0x2c4>)
   11748:	f000 fe6a 	bl	12420 <__assert_func>
   1174c:	e9c0 7701 	strd	r7, r7, [r0, #4]
   11750:	6007      	str	r7, [r0, #0]
   11752:	60c7      	str	r7, [r0, #12]
   11754:	f8db 301c 	ldr.w	r3, [fp, #28]
   11758:	6819      	ldr	r1, [r3, #0]
   1175a:	b159      	cbz	r1, 11774 <_dtoa_r+0x5c>
   1175c:	685a      	ldr	r2, [r3, #4]
   1175e:	604a      	str	r2, [r1, #4]
   11760:	2301      	movs	r3, #1
   11762:	4093      	lsls	r3, r2
   11764:	608b      	str	r3, [r1, #8]
   11766:	4658      	mov	r0, fp
   11768:	f000 fee8 	bl	1253c <_Bfree>
   1176c:	f8db 301c 	ldr.w	r3, [fp, #28]
   11770:	2200      	movs	r2, #0
   11772:	601a      	str	r2, [r3, #0]
   11774:	1e2b      	subs	r3, r5, #0
   11776:	bfb9      	ittee	lt
   11778:	f023 4300 	biclt.w	r3, r3, #2147483648	@ 0x80000000
   1177c:	9305      	strlt	r3, [sp, #20]
   1177e:	2300      	movge	r3, #0
   11780:	6033      	strge	r3, [r6, #0]
   11782:	9f05      	ldr	r7, [sp, #20]
   11784:	4b96      	ldr	r3, [pc, #600]	@ (119e0 <_dtoa_r+0x2c8>)
   11786:	bfbc      	itt	lt
   11788:	2201      	movlt	r2, #1
   1178a:	6032      	strlt	r2, [r6, #0]
   1178c:	43bb      	bics	r3, r7
   1178e:	d112      	bne.n	117b6 <_dtoa_r+0x9e>
   11790:	9a13      	ldr	r2, [sp, #76]	@ 0x4c
   11792:	f242 730f 	movw	r3, #9999	@ 0x270f
   11796:	6013      	str	r3, [r2, #0]
   11798:	f3c7 0313 	ubfx	r3, r7, #0, #20
   1179c:	4323      	orrs	r3, r4
   1179e:	f000 8543 	beq.w	12228 <_dtoa_r+0xb10>
   117a2:	9b23      	ldr	r3, [sp, #140]	@ 0x8c
   117a4:	f8df a24c 	ldr.w	sl, [pc, #588]	@ 119f4 <_dtoa_r+0x2dc>
   117a8:	2b00      	cmp	r3, #0
   117aa:	f000 8545 	beq.w	12238 <_dtoa_r+0xb20>
   117ae:	f10a 0303 	add.w	r3, sl, #3
   117b2:	f000 bd3f 	b.w	12234 <_dtoa_r+0xb1c>
   117b6:	ed9d 7b04 	vldr	d7, [sp, #16]
   117ba:	2200      	movs	r2, #0
   117bc:	ec51 0b17 	vmov	r0, r1, d7
   117c0:	2300      	movs	r3, #0
   117c2:	ed8d 7b0c 	vstr	d7, [sp, #48]	@ 0x30
   117c6:	f7ff fa57 	bl	10c78 <__aeabi_dcmpeq>
   117ca:	4680      	mov	r8, r0
   117cc:	b158      	cbz	r0, 117e6 <_dtoa_r+0xce>
   117ce:	9a13      	ldr	r2, [sp, #76]	@ 0x4c
   117d0:	2301      	movs	r3, #1
   117d2:	6013      	str	r3, [r2, #0]
   117d4:	9b23      	ldr	r3, [sp, #140]	@ 0x8c
   117d6:	b113      	cbz	r3, 117de <_dtoa_r+0xc6>
   117d8:	9a23      	ldr	r2, [sp, #140]	@ 0x8c
   117da:	4b82      	ldr	r3, [pc, #520]	@ (119e4 <_dtoa_r+0x2cc>)
   117dc:	6013      	str	r3, [r2, #0]
   117de:	f8df a218 	ldr.w	sl, [pc, #536]	@ 119f8 <_dtoa_r+0x2e0>
   117e2:	f000 bd29 	b.w	12238 <_dtoa_r+0xb20>
   117e6:	ed9d 0b0c 	vldr	d0, [sp, #48]	@ 0x30
   117ea:	aa16      	add	r2, sp, #88	@ 0x58
   117ec:	a917      	add	r1, sp, #92	@ 0x5c
   117ee:	4658      	mov	r0, fp
   117f0:	f001 fa40 	bl	12c74 <__d2b>
   117f4:	f3c7 560a 	ubfx	r6, r7, #20, #11
   117f8:	4681      	mov	r9, r0
   117fa:	2e00      	cmp	r6, #0
   117fc:	d077      	beq.n	118ee <_dtoa_r+0x1d6>
   117fe:	9b0d      	ldr	r3, [sp, #52]	@ 0x34
   11800:	f8cd 8050 	str.w	r8, [sp, #80]	@ 0x50
   11804:	f3c3 0313 	ubfx	r3, r3, #0, #20
   11808:	e9dd 010c 	ldrd	r0, r1, [sp, #48]	@ 0x30
   1180c:	f043 537f 	orr.w	r3, r3, #1069547520	@ 0x3fc00000
   11810:	f443 1340 	orr.w	r3, r3, #3145728	@ 0x300000
   11814:	f2a6 36ff 	subw	r6, r6, #1023	@ 0x3ff
   11818:	4619      	mov	r1, r3
   1181a:	2200      	movs	r2, #0
   1181c:	4b72      	ldr	r3, [pc, #456]	@ (119e8 <_dtoa_r+0x2d0>)
   1181e:	f7fe fe0b 	bl	10438 <__aeabi_dsub>
   11822:	a367      	add	r3, pc, #412	@ (adr r3, 119c0 <_dtoa_r+0x2a8>)
   11824:	e9d3 2300 	ldrd	r2, r3, [r3]
   11828:	f7fe ffbe 	bl	107a8 <__aeabi_dmul>
   1182c:	a366      	add	r3, pc, #408	@ (adr r3, 119c8 <_dtoa_r+0x2b0>)
   1182e:	e9d3 2300 	ldrd	r2, r3, [r3]
   11832:	f7fe fe03 	bl	1043c <__adddf3>
   11836:	4604      	mov	r4, r0
   11838:	4630      	mov	r0, r6
   1183a:	460d      	mov	r5, r1
   1183c:	f7fe ff4a 	bl	106d4 <__aeabi_i2d>
   11840:	a363      	add	r3, pc, #396	@ (adr r3, 119d0 <_dtoa_r+0x2b8>)
   11842:	e9d3 2300 	ldrd	r2, r3, [r3]
   11846:	f7fe ffaf 	bl	107a8 <__aeabi_dmul>
   1184a:	4602      	mov	r2, r0
   1184c:	460b      	mov	r3, r1
   1184e:	4620      	mov	r0, r4
   11850:	4629      	mov	r1, r5
   11852:	f7fe fdf3 	bl	1043c <__adddf3>
   11856:	4604      	mov	r4, r0
   11858:	460d      	mov	r5, r1
   1185a:	f7ff fa55 	bl	10d08 <__aeabi_d2iz>
   1185e:	2200      	movs	r2, #0
   11860:	4607      	mov	r7, r0
   11862:	2300      	movs	r3, #0
   11864:	4620      	mov	r0, r4
   11866:	4629      	mov	r1, r5
   11868:	f7ff fa10 	bl	10c8c <__aeabi_dcmplt>
   1186c:	b140      	cbz	r0, 11880 <_dtoa_r+0x168>
   1186e:	4638      	mov	r0, r7
   11870:	f7fe ff30 	bl	106d4 <__aeabi_i2d>
   11874:	4622      	mov	r2, r4
   11876:	462b      	mov	r3, r5
   11878:	f7ff f9fe 	bl	10c78 <__aeabi_dcmpeq>
   1187c:	b900      	cbnz	r0, 11880 <_dtoa_r+0x168>
   1187e:	3f01      	subs	r7, #1
   11880:	2f16      	cmp	r7, #22
   11882:	d851      	bhi.n	11928 <_dtoa_r+0x210>
   11884:	4b59      	ldr	r3, [pc, #356]	@ (119ec <_dtoa_r+0x2d4>)
   11886:	eb03 03c7 	add.w	r3, r3, r7, lsl #3
   1188a:	e9d3 2300 	ldrd	r2, r3, [r3]
   1188e:	e9dd 010c 	ldrd	r0, r1, [sp, #48]	@ 0x30
   11892:	f7ff f9fb 	bl	10c8c <__aeabi_dcmplt>
   11896:	2800      	cmp	r0, #0
   11898:	d048      	beq.n	1192c <_dtoa_r+0x214>
   1189a:	3f01      	subs	r7, #1
   1189c:	2300      	movs	r3, #0
   1189e:	9312      	str	r3, [sp, #72]	@ 0x48
   118a0:	9b16      	ldr	r3, [sp, #88]	@ 0x58
   118a2:	1b9b      	subs	r3, r3, r6
   118a4:	1e5a      	subs	r2, r3, #1
   118a6:	bf44      	itt	mi
   118a8:	f1c3 0801 	rsbmi	r8, r3, #1
   118ac:	2300      	movmi	r3, #0
   118ae:	9208      	str	r2, [sp, #32]
   118b0:	bf54      	ite	pl
   118b2:	f04f 0800 	movpl.w	r8, #0
   118b6:	9308      	strmi	r3, [sp, #32]
   118b8:	2f00      	cmp	r7, #0
   118ba:	db39      	blt.n	11930 <_dtoa_r+0x218>
   118bc:	9b08      	ldr	r3, [sp, #32]
   118be:	970f      	str	r7, [sp, #60]	@ 0x3c
   118c0:	443b      	add	r3, r7
   118c2:	9308      	str	r3, [sp, #32]
   118c4:	2300      	movs	r3, #0
   118c6:	930a      	str	r3, [sp, #40]	@ 0x28
   118c8:	9b09      	ldr	r3, [sp, #36]	@ 0x24
   118ca:	2b09      	cmp	r3, #9
   118cc:	d861      	bhi.n	11992 <_dtoa_r+0x27a>
   118ce:	2b05      	cmp	r3, #5
   118d0:	bfc4      	itt	gt
   118d2:	3b04      	subgt	r3, #4
   118d4:	9309      	strgt	r3, [sp, #36]	@ 0x24
   118d6:	9b09      	ldr	r3, [sp, #36]	@ 0x24
   118d8:	f1a3 0302 	sub.w	r3, r3, #2
   118dc:	bfcc      	ite	gt
   118de:	2400      	movgt	r4, #0
   118e0:	2401      	movle	r4, #1
   118e2:	2b03      	cmp	r3, #3
   118e4:	d861      	bhi.n	119aa <_dtoa_r+0x292>
   118e6:	e8df f003 	tbb	[pc, r3]
   118ea:	2a355250 	bcs	d66232 <heap_end.0+0xd5154e>
   118ee:	e9dd 6316 	ldrd	r6, r3, [sp, #88]	@ 0x58
   118f2:	441e      	add	r6, r3
   118f4:	f206 4332 	addw	r3, r6, #1074	@ 0x432
   118f8:	2b20      	cmp	r3, #32
   118fa:	bfc1      	itttt	gt
   118fc:	f1c3 0340 	rsbgt	r3, r3, #64	@ 0x40
   11900:	409f      	lslgt	r7, r3
   11902:	f206 4312 	addwgt	r3, r6, #1042	@ 0x412
   11906:	fa24 f303 	lsrgt.w	r3, r4, r3
   1190a:	bfd6      	itet	le
   1190c:	f1c3 0320 	rsble	r3, r3, #32
   11910:	ea47 0003 	orrgt.w	r0, r7, r3
   11914:	fa04 f003 	lslle.w	r0, r4, r3
   11918:	f7fe fecc 	bl	106b4 <__aeabi_ui2d>
   1191c:	2201      	movs	r2, #1
   1191e:	f1a1 73f8 	sub.w	r3, r1, #32505856	@ 0x1f00000
   11922:	3e01      	subs	r6, #1
   11924:	9214      	str	r2, [sp, #80]	@ 0x50
   11926:	e777      	b.n	11818 <_dtoa_r+0x100>
   11928:	2301      	movs	r3, #1
   1192a:	e7b8      	b.n	1189e <_dtoa_r+0x186>
   1192c:	9012      	str	r0, [sp, #72]	@ 0x48
   1192e:	e7b7      	b.n	118a0 <_dtoa_r+0x188>
   11930:	427b      	negs	r3, r7
   11932:	930a      	str	r3, [sp, #40]	@ 0x28
   11934:	2300      	movs	r3, #0
   11936:	eba8 0807 	sub.w	r8, r8, r7
   1193a:	930f      	str	r3, [sp, #60]	@ 0x3c
   1193c:	e7c4      	b.n	118c8 <_dtoa_r+0x1b0>
   1193e:	2301      	movs	r3, #1
   11940:	930b      	str	r3, [sp, #44]	@ 0x2c
   11942:	9b0e      	ldr	r3, [sp, #56]	@ 0x38
   11944:	18fb      	adds	r3, r7, r3
   11946:	9300      	str	r3, [sp, #0]
   11948:	3301      	adds	r3, #1
   1194a:	2b01      	cmp	r3, #1
   1194c:	9303      	str	r3, [sp, #12]
   1194e:	bfb8      	it	lt
   11950:	2301      	movlt	r3, #1
   11952:	e006      	b.n	11962 <_dtoa_r+0x24a>
   11954:	2301      	movs	r3, #1
   11956:	930b      	str	r3, [sp, #44]	@ 0x2c
   11958:	9b0e      	ldr	r3, [sp, #56]	@ 0x38
   1195a:	2b00      	cmp	r3, #0
   1195c:	dd28      	ble.n	119b0 <_dtoa_r+0x298>
   1195e:	9300      	str	r3, [sp, #0]
   11960:	9303      	str	r3, [sp, #12]
   11962:	f8db 001c 	ldr.w	r0, [fp, #28]
   11966:	2100      	movs	r1, #0
   11968:	2204      	movs	r2, #4
   1196a:	f102 0514 	add.w	r5, r2, #20
   1196e:	429d      	cmp	r5, r3
   11970:	d923      	bls.n	119ba <_dtoa_r+0x2a2>
   11972:	6041      	str	r1, [r0, #4]
   11974:	4658      	mov	r0, fp
   11976:	f000 fda1 	bl	124bc <_Balloc>
   1197a:	4682      	mov	sl, r0
   1197c:	2800      	cmp	r0, #0
   1197e:	d13d      	bne.n	119fc <_dtoa_r+0x2e4>
   11980:	4b1b      	ldr	r3, [pc, #108]	@ (119f0 <_dtoa_r+0x2d8>)
   11982:	4602      	mov	r2, r0
   11984:	f240 11af 	movw	r1, #431	@ 0x1af
   11988:	e6dd      	b.n	11746 <_dtoa_r+0x2e>
   1198a:	2300      	movs	r3, #0
   1198c:	e7e3      	b.n	11956 <_dtoa_r+0x23e>
   1198e:	2300      	movs	r3, #0
   11990:	e7d6      	b.n	11940 <_dtoa_r+0x228>
   11992:	2401      	movs	r4, #1
   11994:	2300      	movs	r3, #0
   11996:	9309      	str	r3, [sp, #36]	@ 0x24
   11998:	940b      	str	r4, [sp, #44]	@ 0x2c
   1199a:	f04f 33ff 	mov.w	r3, #4294967295	@ 0xffffffff
   1199e:	9300      	str	r3, [sp, #0]
   119a0:	9303      	str	r3, [sp, #12]
   119a2:	2200      	movs	r2, #0
   119a4:	2312      	movs	r3, #18
   119a6:	920e      	str	r2, [sp, #56]	@ 0x38
   119a8:	e7db      	b.n	11962 <_dtoa_r+0x24a>
   119aa:	2301      	movs	r3, #1
   119ac:	930b      	str	r3, [sp, #44]	@ 0x2c
   119ae:	e7f4      	b.n	1199a <_dtoa_r+0x282>
   119b0:	2301      	movs	r3, #1
   119b2:	9300      	str	r3, [sp, #0]
   119b4:	9303      	str	r3, [sp, #12]
   119b6:	461a      	mov	r2, r3
   119b8:	e7f5      	b.n	119a6 <_dtoa_r+0x28e>
   119ba:	3101      	adds	r1, #1
   119bc:	0052      	lsls	r2, r2, #1
   119be:	e7d4      	b.n	1196a <_dtoa_r+0x252>
   119c0:	636f4361 	cmnvs	pc, #-2080374783	@ 0x84000001
   119c4:	3fd287a7 	svccc	0x00d287a7
   119c8:	8b60c8b3 	blhi	1843c9c <heap_end.0+0x182efb8>
   119cc:	3fc68a28 	svccc	0x00c68a28
   119d0:	509f79fb 			@ <UNDEFINED> instruction: 0x509f79fb
   119d4:	3fd34413 	svccc	0x00d34413
   119d8:	000140ef 	andeq	r4, r1, pc, ror #1
   119dc:	00014106 	andeq	r4, r1, r6, lsl #2
   119e0:	7ff00000 	svcvc	0x00f00000	@ IMB
   119e4:	000140ee 	andeq	r4, r1, lr, ror #1
   119e8:	3ff80000 	svccc	0x00f80000
   119ec:	00014290 	muleq	r1, r0, r2
   119f0:	0001415f 	andeq	r4, r1, pc, asr r1
   119f4:	000140e9 	andeq	r4, r1, r9, ror #1
   119f8:	000140ed 	andeq	r4, r1, sp, ror #1
   119fc:	f8db 301c 	ldr.w	r3, [fp, #28]
   11a00:	6018      	str	r0, [r3, #0]
   11a02:	9b03      	ldr	r3, [sp, #12]
   11a04:	2b0e      	cmp	r3, #14
   11a06:	f200 80a1 	bhi.w	11b4c <_dtoa_r+0x434>
   11a0a:	2c00      	cmp	r4, #0
   11a0c:	f000 809e 	beq.w	11b4c <_dtoa_r+0x434>
   11a10:	2f00      	cmp	r7, #0
   11a12:	dd33      	ble.n	11a7c <_dtoa_r+0x364>
   11a14:	4b9c      	ldr	r3, [pc, #624]	@ (11c88 <_dtoa_r+0x570>)
   11a16:	f007 020f 	and.w	r2, r7, #15
   11a1a:	eb03 03c2 	add.w	r3, r3, r2, lsl #3
   11a1e:	ed93 7b00 	vldr	d7, [r3]
   11a22:	05f8      	lsls	r0, r7, #23
   11a24:	ed8d 7b06 	vstr	d7, [sp, #24]
   11a28:	ea4f 1427 	mov.w	r4, r7, asr #4
   11a2c:	d516      	bpl.n	11a5c <_dtoa_r+0x344>
   11a2e:	4b97      	ldr	r3, [pc, #604]	@ (11c8c <_dtoa_r+0x574>)
   11a30:	e9dd 010c 	ldrd	r0, r1, [sp, #48]	@ 0x30
   11a34:	e9d3 2308 	ldrd	r2, r3, [r3, #32]
   11a38:	f7fe ffe0 	bl	109fc <__aeabi_ddiv>
   11a3c:	e9cd 0104 	strd	r0, r1, [sp, #16]
   11a40:	f004 040f 	and.w	r4, r4, #15
   11a44:	2603      	movs	r6, #3
   11a46:	4d91      	ldr	r5, [pc, #580]	@ (11c8c <_dtoa_r+0x574>)
   11a48:	b954      	cbnz	r4, 11a60 <_dtoa_r+0x348>
   11a4a:	e9dd 2306 	ldrd	r2, r3, [sp, #24]
   11a4e:	e9dd 0104 	ldrd	r0, r1, [sp, #16]
   11a52:	f7fe ffd3 	bl	109fc <__aeabi_ddiv>
   11a56:	e9cd 0104 	strd	r0, r1, [sp, #16]
   11a5a:	e028      	b.n	11aae <_dtoa_r+0x396>
   11a5c:	2602      	movs	r6, #2
   11a5e:	e7f2      	b.n	11a46 <_dtoa_r+0x32e>
   11a60:	07e1      	lsls	r1, r4, #31
   11a62:	d508      	bpl.n	11a76 <_dtoa_r+0x35e>
   11a64:	e9dd 0106 	ldrd	r0, r1, [sp, #24]
   11a68:	e9d5 2300 	ldrd	r2, r3, [r5]
   11a6c:	f7fe fe9c 	bl	107a8 <__aeabi_dmul>
   11a70:	e9cd 0106 	strd	r0, r1, [sp, #24]
   11a74:	3601      	adds	r6, #1
   11a76:	1064      	asrs	r4, r4, #1
   11a78:	3508      	adds	r5, #8
   11a7a:	e7e5      	b.n	11a48 <_dtoa_r+0x330>
   11a7c:	f000 80af 	beq.w	11bde <_dtoa_r+0x4c6>
   11a80:	427c      	negs	r4, r7
   11a82:	4b81      	ldr	r3, [pc, #516]	@ (11c88 <_dtoa_r+0x570>)
   11a84:	4d81      	ldr	r5, [pc, #516]	@ (11c8c <_dtoa_r+0x574>)
   11a86:	f004 020f 	and.w	r2, r4, #15
   11a8a:	eb03 03c2 	add.w	r3, r3, r2, lsl #3
   11a8e:	e9d3 2300 	ldrd	r2, r3, [r3]
   11a92:	e9dd 010c 	ldrd	r0, r1, [sp, #48]	@ 0x30
   11a96:	f7fe fe87 	bl	107a8 <__aeabi_dmul>
   11a9a:	e9cd 0104 	strd	r0, r1, [sp, #16]
   11a9e:	1124      	asrs	r4, r4, #4
   11aa0:	2300      	movs	r3, #0
   11aa2:	2602      	movs	r6, #2
   11aa4:	2c00      	cmp	r4, #0
   11aa6:	f040 808f 	bne.w	11bc8 <_dtoa_r+0x4b0>
   11aaa:	2b00      	cmp	r3, #0
   11aac:	d1d3      	bne.n	11a56 <_dtoa_r+0x33e>
   11aae:	9b12      	ldr	r3, [sp, #72]	@ 0x48
   11ab0:	e9dd 4504 	ldrd	r4, r5, [sp, #16]
   11ab4:	2b00      	cmp	r3, #0
   11ab6:	f000 8094 	beq.w	11be2 <_dtoa_r+0x4ca>
   11aba:	4b75      	ldr	r3, [pc, #468]	@ (11c90 <_dtoa_r+0x578>)
   11abc:	2200      	movs	r2, #0
   11abe:	4620      	mov	r0, r4
   11ac0:	4629      	mov	r1, r5
   11ac2:	f7ff f8e3 	bl	10c8c <__aeabi_dcmplt>
   11ac6:	2800      	cmp	r0, #0
   11ac8:	f000 808b 	beq.w	11be2 <_dtoa_r+0x4ca>
   11acc:	9b03      	ldr	r3, [sp, #12]
   11ace:	2b00      	cmp	r3, #0
   11ad0:	f000 8087 	beq.w	11be2 <_dtoa_r+0x4ca>
   11ad4:	9b00      	ldr	r3, [sp, #0]
   11ad6:	2b00      	cmp	r3, #0
   11ad8:	dd34      	ble.n	11b44 <_dtoa_r+0x42c>
   11ada:	1e7b      	subs	r3, r7, #1
   11adc:	9306      	str	r3, [sp, #24]
   11ade:	4620      	mov	r0, r4
   11ae0:	4b6c      	ldr	r3, [pc, #432]	@ (11c94 <_dtoa_r+0x57c>)
   11ae2:	2200      	movs	r2, #0
   11ae4:	4629      	mov	r1, r5
   11ae6:	f7fe fe5f 	bl	107a8 <__aeabi_dmul>
   11aea:	e9cd 0104 	strd	r0, r1, [sp, #16]
   11aee:	9c00      	ldr	r4, [sp, #0]
   11af0:	3601      	adds	r6, #1
   11af2:	4630      	mov	r0, r6
   11af4:	f7fe fdee 	bl	106d4 <__aeabi_i2d>
   11af8:	e9dd 2304 	ldrd	r2, r3, [sp, #16]
   11afc:	f7fe fe54 	bl	107a8 <__aeabi_dmul>
   11b00:	4b65      	ldr	r3, [pc, #404]	@ (11c98 <_dtoa_r+0x580>)
   11b02:	2200      	movs	r2, #0
   11b04:	f7fe fc9a 	bl	1043c <__adddf3>
   11b08:	4605      	mov	r5, r0
   11b0a:	f1a1 7650 	sub.w	r6, r1, #54525952	@ 0x3400000
   11b0e:	2c00      	cmp	r4, #0
   11b10:	d16a      	bne.n	11be8 <_dtoa_r+0x4d0>
   11b12:	e9dd 0104 	ldrd	r0, r1, [sp, #16]
   11b16:	4b61      	ldr	r3, [pc, #388]	@ (11c9c <_dtoa_r+0x584>)
   11b18:	2200      	movs	r2, #0
   11b1a:	f7fe fc8d 	bl	10438 <__aeabi_dsub>
   11b1e:	4602      	mov	r2, r0
   11b20:	460b      	mov	r3, r1
   11b22:	e9cd 2304 	strd	r2, r3, [sp, #16]
   11b26:	462a      	mov	r2, r5
   11b28:	4633      	mov	r3, r6
   11b2a:	f7ff f8cd 	bl	10cc8 <__aeabi_dcmpgt>
   11b2e:	2800      	cmp	r0, #0
   11b30:	f040 8287 	bne.w	12042 <_dtoa_r+0x92a>
   11b34:	e9dd 0104 	ldrd	r0, r1, [sp, #16]
   11b38:	462a      	mov	r2, r5
   11b3a:	f106 4300 	add.w	r3, r6, #2147483648	@ 0x80000000
   11b3e:	f7ff f8a5 	bl	10c8c <__aeabi_dcmplt>
   11b42:	bb38      	cbnz	r0, 11b94 <_dtoa_r+0x47c>
   11b44:	e9dd 340c 	ldrd	r3, r4, [sp, #48]	@ 0x30
   11b48:	e9cd 3404 	strd	r3, r4, [sp, #16]
   11b4c:	9b17      	ldr	r3, [sp, #92]	@ 0x5c
   11b4e:	2b00      	cmp	r3, #0
   11b50:	f2c0 8158 	blt.w	11e04 <_dtoa_r+0x6ec>
   11b54:	2f0e      	cmp	r7, #14
   11b56:	f300 8155 	bgt.w	11e04 <_dtoa_r+0x6ec>
   11b5a:	4b4b      	ldr	r3, [pc, #300]	@ (11c88 <_dtoa_r+0x570>)
   11b5c:	eb03 03c7 	add.w	r3, r3, r7, lsl #3
   11b60:	ed93 7b00 	vldr	d7, [r3]
   11b64:	9b0e      	ldr	r3, [sp, #56]	@ 0x38
   11b66:	2b00      	cmp	r3, #0
   11b68:	ed8d 7b00 	vstr	d7, [sp]
   11b6c:	f280 80e5 	bge.w	11d3a <_dtoa_r+0x622>
   11b70:	9b03      	ldr	r3, [sp, #12]
   11b72:	2b00      	cmp	r3, #0
   11b74:	f300 80e1 	bgt.w	11d3a <_dtoa_r+0x622>
   11b78:	d10c      	bne.n	11b94 <_dtoa_r+0x47c>
   11b7a:	4b48      	ldr	r3, [pc, #288]	@ (11c9c <_dtoa_r+0x584>)
   11b7c:	2200      	movs	r2, #0
   11b7e:	ec51 0b17 	vmov	r0, r1, d7
   11b82:	f7fe fe11 	bl	107a8 <__aeabi_dmul>
   11b86:	e9dd 2304 	ldrd	r2, r3, [sp, #16]
   11b8a:	f7ff f893 	bl	10cb4 <__aeabi_dcmpge>
   11b8e:	2800      	cmp	r0, #0
   11b90:	f000 8255 	beq.w	1203e <_dtoa_r+0x926>
   11b94:	2400      	movs	r4, #0
   11b96:	4625      	mov	r5, r4
   11b98:	9b0e      	ldr	r3, [sp, #56]	@ 0x38
   11b9a:	43db      	mvns	r3, r3
   11b9c:	9306      	str	r3, [sp, #24]
   11b9e:	4656      	mov	r6, sl
   11ba0:	2700      	movs	r7, #0
   11ba2:	4621      	mov	r1, r4
   11ba4:	4658      	mov	r0, fp
   11ba6:	f000 fcc9 	bl	1253c <_Bfree>
   11baa:	2d00      	cmp	r5, #0
   11bac:	f000 80bd 	beq.w	11d2a <_dtoa_r+0x612>
   11bb0:	b12f      	cbz	r7, 11bbe <_dtoa_r+0x4a6>
   11bb2:	42af      	cmp	r7, r5
   11bb4:	d003      	beq.n	11bbe <_dtoa_r+0x4a6>
   11bb6:	4639      	mov	r1, r7
   11bb8:	4658      	mov	r0, fp
   11bba:	f000 fcbf 	bl	1253c <_Bfree>
   11bbe:	4629      	mov	r1, r5
   11bc0:	4658      	mov	r0, fp
   11bc2:	f000 fcbb 	bl	1253c <_Bfree>
   11bc6:	e0b0      	b.n	11d2a <_dtoa_r+0x612>
   11bc8:	07e2      	lsls	r2, r4, #31
   11bca:	d505      	bpl.n	11bd8 <_dtoa_r+0x4c0>
   11bcc:	e9d5 2300 	ldrd	r2, r3, [r5]
   11bd0:	f7fe fdea 	bl	107a8 <__aeabi_dmul>
   11bd4:	3601      	adds	r6, #1
   11bd6:	2301      	movs	r3, #1
   11bd8:	1064      	asrs	r4, r4, #1
   11bda:	3508      	adds	r5, #8
   11bdc:	e762      	b.n	11aa4 <_dtoa_r+0x38c>
   11bde:	2602      	movs	r6, #2
   11be0:	e765      	b.n	11aae <_dtoa_r+0x396>
   11be2:	9c03      	ldr	r4, [sp, #12]
   11be4:	9706      	str	r7, [sp, #24]
   11be6:	e784      	b.n	11af2 <_dtoa_r+0x3da>
   11be8:	4b27      	ldr	r3, [pc, #156]	@ (11c88 <_dtoa_r+0x570>)
   11bea:	990b      	ldr	r1, [sp, #44]	@ 0x2c
   11bec:	eb03 03c4 	add.w	r3, r3, r4, lsl #3
   11bf0:	e953 2302 	ldrd	r2, r3, [r3, #-8]
   11bf4:	4454      	add	r4, sl
   11bf6:	2900      	cmp	r1, #0
   11bf8:	d054      	beq.n	11ca4 <_dtoa_r+0x58c>
   11bfa:	4929      	ldr	r1, [pc, #164]	@ (11ca0 <_dtoa_r+0x588>)
   11bfc:	2000      	movs	r0, #0
   11bfe:	f7fe fefd 	bl	109fc <__aeabi_ddiv>
   11c02:	4633      	mov	r3, r6
   11c04:	462a      	mov	r2, r5
   11c06:	f7fe fc17 	bl	10438 <__aeabi_dsub>
   11c0a:	e9cd 0110 	strd	r0, r1, [sp, #64]	@ 0x40
   11c0e:	4656      	mov	r6, sl
   11c10:	e9dd 0104 	ldrd	r0, r1, [sp, #16]
   11c14:	f7ff f878 	bl	10d08 <__aeabi_d2iz>
   11c18:	4605      	mov	r5, r0
   11c1a:	f7fe fd5b 	bl	106d4 <__aeabi_i2d>
   11c1e:	4602      	mov	r2, r0
   11c20:	460b      	mov	r3, r1
   11c22:	e9dd 0104 	ldrd	r0, r1, [sp, #16]
   11c26:	f7fe fc07 	bl	10438 <__aeabi_dsub>
   11c2a:	3530      	adds	r5, #48	@ 0x30
   11c2c:	4602      	mov	r2, r0
   11c2e:	460b      	mov	r3, r1
   11c30:	e9cd 2304 	strd	r2, r3, [sp, #16]
   11c34:	f806 5b01 	strb.w	r5, [r6], #1
   11c38:	e9dd 2310 	ldrd	r2, r3, [sp, #64]	@ 0x40
   11c3c:	f7ff f826 	bl	10c8c <__aeabi_dcmplt>
   11c40:	2800      	cmp	r0, #0
   11c42:	d172      	bne.n	11d2a <_dtoa_r+0x612>
   11c44:	e9dd 2304 	ldrd	r2, r3, [sp, #16]
   11c48:	4911      	ldr	r1, [pc, #68]	@ (11c90 <_dtoa_r+0x578>)
   11c4a:	2000      	movs	r0, #0
   11c4c:	f7fe fbf4 	bl	10438 <__aeabi_dsub>
   11c50:	e9dd 2310 	ldrd	r2, r3, [sp, #64]	@ 0x40
   11c54:	f7ff f81a 	bl	10c8c <__aeabi_dcmplt>
   11c58:	2800      	cmp	r0, #0
   11c5a:	f040 80b4 	bne.w	11dc6 <_dtoa_r+0x6ae>
   11c5e:	42a6      	cmp	r6, r4
   11c60:	f43f af70 	beq.w	11b44 <_dtoa_r+0x42c>
   11c64:	e9dd 0110 	ldrd	r0, r1, [sp, #64]	@ 0x40
   11c68:	4b0a      	ldr	r3, [pc, #40]	@ (11c94 <_dtoa_r+0x57c>)
   11c6a:	2200      	movs	r2, #0
   11c6c:	f7fe fd9c 	bl	107a8 <__aeabi_dmul>
   11c70:	4b08      	ldr	r3, [pc, #32]	@ (11c94 <_dtoa_r+0x57c>)
   11c72:	e9cd 0110 	strd	r0, r1, [sp, #64]	@ 0x40
   11c76:	2200      	movs	r2, #0
   11c78:	e9dd 0104 	ldrd	r0, r1, [sp, #16]
   11c7c:	f7fe fd94 	bl	107a8 <__aeabi_dmul>
   11c80:	e9cd 0104 	strd	r0, r1, [sp, #16]
   11c84:	e7c4      	b.n	11c10 <_dtoa_r+0x4f8>
   11c86:	bf00      	nop
   11c88:	00014290 	muleq	r1, r0, r2
   11c8c:	00014268 	andeq	r4, r1, r8, ror #4
   11c90:	3ff00000 	svccc	0x00f00000	@ IMB
   11c94:	40240000 	eormi	r0, r4, r0
   11c98:	401c0000 	andsmi	r0, ip, r0
   11c9c:	40140000 	andsmi	r0, r4, r0
   11ca0:	3fe00000 	svccc	0x00e00000
   11ca4:	4631      	mov	r1, r6
   11ca6:	4628      	mov	r0, r5
   11ca8:	f7fe fd7e 	bl	107a8 <__aeabi_dmul>
   11cac:	e9cd 0110 	strd	r0, r1, [sp, #64]	@ 0x40
   11cb0:	9415      	str	r4, [sp, #84]	@ 0x54
   11cb2:	4656      	mov	r6, sl
   11cb4:	e9dd 0104 	ldrd	r0, r1, [sp, #16]
   11cb8:	f7ff f826 	bl	10d08 <__aeabi_d2iz>
   11cbc:	4605      	mov	r5, r0
   11cbe:	f7fe fd09 	bl	106d4 <__aeabi_i2d>
   11cc2:	4602      	mov	r2, r0
   11cc4:	460b      	mov	r3, r1
   11cc6:	e9dd 0104 	ldrd	r0, r1, [sp, #16]
   11cca:	f7fe fbb5 	bl	10438 <__aeabi_dsub>
   11cce:	3530      	adds	r5, #48	@ 0x30
   11cd0:	f806 5b01 	strb.w	r5, [r6], #1
   11cd4:	4602      	mov	r2, r0
   11cd6:	460b      	mov	r3, r1
   11cd8:	42a6      	cmp	r6, r4
   11cda:	e9cd 2304 	strd	r2, r3, [sp, #16]
   11cde:	f04f 0200 	mov.w	r2, #0
   11ce2:	d124      	bne.n	11d2e <_dtoa_r+0x616>
   11ce4:	4bab      	ldr	r3, [pc, #684]	@ (11f94 <_dtoa_r+0x87c>)
   11ce6:	e9dd 0110 	ldrd	r0, r1, [sp, #64]	@ 0x40
   11cea:	f7fe fba7 	bl	1043c <__adddf3>
   11cee:	4602      	mov	r2, r0
   11cf0:	460b      	mov	r3, r1
   11cf2:	e9dd 0104 	ldrd	r0, r1, [sp, #16]
   11cf6:	f7fe ffe7 	bl	10cc8 <__aeabi_dcmpgt>
   11cfa:	2800      	cmp	r0, #0
   11cfc:	d163      	bne.n	11dc6 <_dtoa_r+0x6ae>
   11cfe:	e9dd 2310 	ldrd	r2, r3, [sp, #64]	@ 0x40
   11d02:	49a4      	ldr	r1, [pc, #656]	@ (11f94 <_dtoa_r+0x87c>)
   11d04:	2000      	movs	r0, #0
   11d06:	f7fe fb97 	bl	10438 <__aeabi_dsub>
   11d0a:	4602      	mov	r2, r0
   11d0c:	460b      	mov	r3, r1
   11d0e:	e9dd 0104 	ldrd	r0, r1, [sp, #16]
   11d12:	f7fe ffbb 	bl	10c8c <__aeabi_dcmplt>
   11d16:	2800      	cmp	r0, #0
   11d18:	f43f af14 	beq.w	11b44 <_dtoa_r+0x42c>
   11d1c:	9e15      	ldr	r6, [sp, #84]	@ 0x54
   11d1e:	1e73      	subs	r3, r6, #1
   11d20:	9315      	str	r3, [sp, #84]	@ 0x54
   11d22:	f816 3c01 	ldrb.w	r3, [r6, #-1]
   11d26:	2b30      	cmp	r3, #48	@ 0x30
   11d28:	d0f8      	beq.n	11d1c <_dtoa_r+0x604>
   11d2a:	9f06      	ldr	r7, [sp, #24]
   11d2c:	e03b      	b.n	11da6 <_dtoa_r+0x68e>
   11d2e:	4b9a      	ldr	r3, [pc, #616]	@ (11f98 <_dtoa_r+0x880>)
   11d30:	f7fe fd3a 	bl	107a8 <__aeabi_dmul>
   11d34:	e9cd 0104 	strd	r0, r1, [sp, #16]
   11d38:	e7bc      	b.n	11cb4 <_dtoa_r+0x59c>
   11d3a:	e9dd 4504 	ldrd	r4, r5, [sp, #16]
   11d3e:	4656      	mov	r6, sl
   11d40:	e9dd 2300 	ldrd	r2, r3, [sp]
   11d44:	4620      	mov	r0, r4
   11d46:	4629      	mov	r1, r5
   11d48:	f7fe fe58 	bl	109fc <__aeabi_ddiv>
   11d4c:	f7fe ffdc 	bl	10d08 <__aeabi_d2iz>
   11d50:	4680      	mov	r8, r0
   11d52:	f7fe fcbf 	bl	106d4 <__aeabi_i2d>
   11d56:	e9dd 2300 	ldrd	r2, r3, [sp]
   11d5a:	f7fe fd25 	bl	107a8 <__aeabi_dmul>
   11d5e:	4602      	mov	r2, r0
   11d60:	460b      	mov	r3, r1
   11d62:	4620      	mov	r0, r4
   11d64:	4629      	mov	r1, r5
   11d66:	f108 0430 	add.w	r4, r8, #48	@ 0x30
   11d6a:	f7fe fb65 	bl	10438 <__aeabi_dsub>
   11d6e:	f806 4b01 	strb.w	r4, [r6], #1
   11d72:	9d03      	ldr	r5, [sp, #12]
   11d74:	eba6 040a 	sub.w	r4, r6, sl
   11d78:	42a5      	cmp	r5, r4
   11d7a:	4602      	mov	r2, r0
   11d7c:	460b      	mov	r3, r1
   11d7e:	d134      	bne.n	11dea <_dtoa_r+0x6d2>
   11d80:	f7fe fb5c 	bl	1043c <__adddf3>
   11d84:	e9dd 2300 	ldrd	r2, r3, [sp]
   11d88:	4604      	mov	r4, r0
   11d8a:	460d      	mov	r5, r1
   11d8c:	f7fe ff9c 	bl	10cc8 <__aeabi_dcmpgt>
   11d90:	b9c0      	cbnz	r0, 11dc4 <_dtoa_r+0x6ac>
   11d92:	e9dd 2300 	ldrd	r2, r3, [sp]
   11d96:	4620      	mov	r0, r4
   11d98:	4629      	mov	r1, r5
   11d9a:	f7fe ff6d 	bl	10c78 <__aeabi_dcmpeq>
   11d9e:	b110      	cbz	r0, 11da6 <_dtoa_r+0x68e>
   11da0:	f018 0f01 	tst.w	r8, #1
   11da4:	d10e      	bne.n	11dc4 <_dtoa_r+0x6ac>
   11da6:	4649      	mov	r1, r9
   11da8:	4658      	mov	r0, fp
   11daa:	f000 fbc7 	bl	1253c <_Bfree>
   11dae:	2300      	movs	r3, #0
   11db0:	7033      	strb	r3, [r6, #0]
   11db2:	9b13      	ldr	r3, [sp, #76]	@ 0x4c
   11db4:	3701      	adds	r7, #1
   11db6:	601f      	str	r7, [r3, #0]
   11db8:	9b23      	ldr	r3, [sp, #140]	@ 0x8c
   11dba:	2b00      	cmp	r3, #0
   11dbc:	f000 823c 	beq.w	12238 <_dtoa_r+0xb20>
   11dc0:	601e      	str	r6, [r3, #0]
   11dc2:	e239      	b.n	12238 <_dtoa_r+0xb20>
   11dc4:	9706      	str	r7, [sp, #24]
   11dc6:	4633      	mov	r3, r6
   11dc8:	461e      	mov	r6, r3
   11dca:	f813 2d01 	ldrb.w	r2, [r3, #-1]!
   11dce:	2a39      	cmp	r2, #57	@ 0x39
   11dd0:	d107      	bne.n	11de2 <_dtoa_r+0x6ca>
   11dd2:	459a      	cmp	sl, r3
   11dd4:	d1f8      	bne.n	11dc8 <_dtoa_r+0x6b0>
   11dd6:	9a06      	ldr	r2, [sp, #24]
   11dd8:	3201      	adds	r2, #1
   11dda:	9206      	str	r2, [sp, #24]
   11ddc:	2230      	movs	r2, #48	@ 0x30
   11dde:	f88a 2000 	strb.w	r2, [sl]
   11de2:	781a      	ldrb	r2, [r3, #0]
   11de4:	3201      	adds	r2, #1
   11de6:	701a      	strb	r2, [r3, #0]
   11de8:	e79f      	b.n	11d2a <_dtoa_r+0x612>
   11dea:	4b6b      	ldr	r3, [pc, #428]	@ (11f98 <_dtoa_r+0x880>)
   11dec:	2200      	movs	r2, #0
   11dee:	f7fe fcdb 	bl	107a8 <__aeabi_dmul>
   11df2:	2200      	movs	r2, #0
   11df4:	2300      	movs	r3, #0
   11df6:	4604      	mov	r4, r0
   11df8:	460d      	mov	r5, r1
   11dfa:	f7fe ff3d 	bl	10c78 <__aeabi_dcmpeq>
   11dfe:	2800      	cmp	r0, #0
   11e00:	d09e      	beq.n	11d40 <_dtoa_r+0x628>
   11e02:	e7d0      	b.n	11da6 <_dtoa_r+0x68e>
   11e04:	9a0b      	ldr	r2, [sp, #44]	@ 0x2c
   11e06:	2a00      	cmp	r2, #0
   11e08:	f000 80e1 	beq.w	11fce <_dtoa_r+0x8b6>
   11e0c:	9a09      	ldr	r2, [sp, #36]	@ 0x24
   11e0e:	2a01      	cmp	r2, #1
   11e10:	f300 80c4 	bgt.w	11f9c <_dtoa_r+0x884>
   11e14:	9a14      	ldr	r2, [sp, #80]	@ 0x50
   11e16:	2a00      	cmp	r2, #0
   11e18:	f000 80b7 	beq.w	11f8a <_dtoa_r+0x872>
   11e1c:	f203 4333 	addw	r3, r3, #1075	@ 0x433
   11e20:	9c0a      	ldr	r4, [sp, #40]	@ 0x28
   11e22:	4646      	mov	r6, r8
   11e24:	9a08      	ldr	r2, [sp, #32]
   11e26:	2101      	movs	r1, #1
   11e28:	441a      	add	r2, r3
   11e2a:	4658      	mov	r0, fp
   11e2c:	4498      	add	r8, r3
   11e2e:	9208      	str	r2, [sp, #32]
   11e30:	f000 fc82 	bl	12738 <__i2b>
   11e34:	4605      	mov	r5, r0
   11e36:	b15e      	cbz	r6, 11e50 <_dtoa_r+0x738>
   11e38:	9b08      	ldr	r3, [sp, #32]
   11e3a:	2b00      	cmp	r3, #0
   11e3c:	dd08      	ble.n	11e50 <_dtoa_r+0x738>
   11e3e:	42b3      	cmp	r3, r6
   11e40:	9a08      	ldr	r2, [sp, #32]
   11e42:	bfa8      	it	ge
   11e44:	4633      	movge	r3, r6
   11e46:	eba8 0803 	sub.w	r8, r8, r3
   11e4a:	1af6      	subs	r6, r6, r3
   11e4c:	1ad3      	subs	r3, r2, r3
   11e4e:	9308      	str	r3, [sp, #32]
   11e50:	9b0a      	ldr	r3, [sp, #40]	@ 0x28
   11e52:	b1f3      	cbz	r3, 11e92 <_dtoa_r+0x77a>
   11e54:	9b0b      	ldr	r3, [sp, #44]	@ 0x2c
   11e56:	2b00      	cmp	r3, #0
   11e58:	f000 80bd 	beq.w	11fd6 <_dtoa_r+0x8be>
   11e5c:	b18c      	cbz	r4, 11e82 <_dtoa_r+0x76a>
   11e5e:	4629      	mov	r1, r5
   11e60:	4622      	mov	r2, r4
   11e62:	4658      	mov	r0, fp
   11e64:	f000 fd20 	bl	128a8 <__pow5mult>
   11e68:	464a      	mov	r2, r9
   11e6a:	4601      	mov	r1, r0
   11e6c:	4605      	mov	r5, r0
   11e6e:	4658      	mov	r0, fp
   11e70:	f000 fc78 	bl	12764 <__multiply>
   11e74:	4649      	mov	r1, r9
   11e76:	9006      	str	r0, [sp, #24]
   11e78:	4658      	mov	r0, fp
   11e7a:	f000 fb5f 	bl	1253c <_Bfree>
   11e7e:	9b06      	ldr	r3, [sp, #24]
   11e80:	4699      	mov	r9, r3
   11e82:	9b0a      	ldr	r3, [sp, #40]	@ 0x28
   11e84:	1b1a      	subs	r2, r3, r4
   11e86:	d004      	beq.n	11e92 <_dtoa_r+0x77a>
   11e88:	4649      	mov	r1, r9
   11e8a:	4658      	mov	r0, fp
   11e8c:	f000 fd0c 	bl	128a8 <__pow5mult>
   11e90:	4681      	mov	r9, r0
   11e92:	2101      	movs	r1, #1
   11e94:	4658      	mov	r0, fp
   11e96:	f000 fc4f 	bl	12738 <__i2b>
   11e9a:	9b0f      	ldr	r3, [sp, #60]	@ 0x3c
   11e9c:	4604      	mov	r4, r0
   11e9e:	2b00      	cmp	r3, #0
   11ea0:	f000 81ce 	beq.w	12240 <_dtoa_r+0xb28>
   11ea4:	461a      	mov	r2, r3
   11ea6:	4601      	mov	r1, r0
   11ea8:	4658      	mov	r0, fp
   11eaa:	f000 fcfd 	bl	128a8 <__pow5mult>
   11eae:	9b09      	ldr	r3, [sp, #36]	@ 0x24
   11eb0:	2b01      	cmp	r3, #1
   11eb2:	4604      	mov	r4, r0
   11eb4:	f300 8095 	bgt.w	11fe2 <_dtoa_r+0x8ca>
   11eb8:	9b04      	ldr	r3, [sp, #16]
   11eba:	2b00      	cmp	r3, #0
   11ebc:	f040 808d 	bne.w	11fda <_dtoa_r+0x8c2>
   11ec0:	9b05      	ldr	r3, [sp, #20]
   11ec2:	f3c3 0313 	ubfx	r3, r3, #0, #20
   11ec6:	2b00      	cmp	r3, #0
   11ec8:	f040 8089 	bne.w	11fde <_dtoa_r+0x8c6>
   11ecc:	9b05      	ldr	r3, [sp, #20]
   11ece:	f023 4300 	bic.w	r3, r3, #2147483648	@ 0x80000000
   11ed2:	0d1b      	lsrs	r3, r3, #20
   11ed4:	051b      	lsls	r3, r3, #20
   11ed6:	b12b      	cbz	r3, 11ee4 <_dtoa_r+0x7cc>
   11ed8:	9b08      	ldr	r3, [sp, #32]
   11eda:	3301      	adds	r3, #1
   11edc:	9308      	str	r3, [sp, #32]
   11ede:	f108 0801 	add.w	r8, r8, #1
   11ee2:	2301      	movs	r3, #1
   11ee4:	930a      	str	r3, [sp, #40]	@ 0x28
   11ee6:	9b0f      	ldr	r3, [sp, #60]	@ 0x3c
   11ee8:	2b00      	cmp	r3, #0
   11eea:	f000 81af 	beq.w	1224c <_dtoa_r+0xb34>
   11eee:	6923      	ldr	r3, [r4, #16]
   11ef0:	eb04 0383 	add.w	r3, r4, r3, lsl #2
   11ef4:	6918      	ldr	r0, [r3, #16]
   11ef6:	f000 fbd3 	bl	126a0 <__hi0bits>
   11efa:	f1c0 0020 	rsb	r0, r0, #32
   11efe:	9b08      	ldr	r3, [sp, #32]
   11f00:	4418      	add	r0, r3
   11f02:	f010 001f 	ands.w	r0, r0, #31
   11f06:	d077      	beq.n	11ff8 <_dtoa_r+0x8e0>
   11f08:	f1c0 0320 	rsb	r3, r0, #32
   11f0c:	2b04      	cmp	r3, #4
   11f0e:	dd6b      	ble.n	11fe8 <_dtoa_r+0x8d0>
   11f10:	9b08      	ldr	r3, [sp, #32]
   11f12:	f1c0 001c 	rsb	r0, r0, #28
   11f16:	4403      	add	r3, r0
   11f18:	4480      	add	r8, r0
   11f1a:	4406      	add	r6, r0
   11f1c:	9308      	str	r3, [sp, #32]
   11f1e:	f1b8 0f00 	cmp.w	r8, #0
   11f22:	dd05      	ble.n	11f30 <_dtoa_r+0x818>
   11f24:	4649      	mov	r1, r9
   11f26:	4642      	mov	r2, r8
   11f28:	4658      	mov	r0, fp
   11f2a:	f000 fd17 	bl	1295c <__lshift>
   11f2e:	4681      	mov	r9, r0
   11f30:	9b08      	ldr	r3, [sp, #32]
   11f32:	2b00      	cmp	r3, #0
   11f34:	dd05      	ble.n	11f42 <_dtoa_r+0x82a>
   11f36:	4621      	mov	r1, r4
   11f38:	461a      	mov	r2, r3
   11f3a:	4658      	mov	r0, fp
   11f3c:	f000 fd0e 	bl	1295c <__lshift>
   11f40:	4604      	mov	r4, r0
   11f42:	9b12      	ldr	r3, [sp, #72]	@ 0x48
   11f44:	2b00      	cmp	r3, #0
   11f46:	d059      	beq.n	11ffc <_dtoa_r+0x8e4>
   11f48:	4621      	mov	r1, r4
   11f4a:	4648      	mov	r0, r9
   11f4c:	f000 fd72 	bl	12a34 <__mcmp>
   11f50:	2800      	cmp	r0, #0
   11f52:	da53      	bge.n	11ffc <_dtoa_r+0x8e4>
   11f54:	1e7b      	subs	r3, r7, #1
   11f56:	9306      	str	r3, [sp, #24]
   11f58:	4649      	mov	r1, r9
   11f5a:	2300      	movs	r3, #0
   11f5c:	220a      	movs	r2, #10
   11f5e:	4658      	mov	r0, fp
   11f60:	f000 fb0e 	bl	12580 <__multadd>
   11f64:	9b0b      	ldr	r3, [sp, #44]	@ 0x2c
   11f66:	4681      	mov	r9, r0
   11f68:	2b00      	cmp	r3, #0
   11f6a:	f000 8171 	beq.w	12250 <_dtoa_r+0xb38>
   11f6e:	2300      	movs	r3, #0
   11f70:	4629      	mov	r1, r5
   11f72:	220a      	movs	r2, #10
   11f74:	4658      	mov	r0, fp
   11f76:	f000 fb03 	bl	12580 <__multadd>
   11f7a:	9b00      	ldr	r3, [sp, #0]
   11f7c:	2b00      	cmp	r3, #0
   11f7e:	4605      	mov	r5, r0
   11f80:	dc67      	bgt.n	12052 <_dtoa_r+0x93a>
   11f82:	9b09      	ldr	r3, [sp, #36]	@ 0x24
   11f84:	2b02      	cmp	r3, #2
   11f86:	dc41      	bgt.n	1200c <_dtoa_r+0x8f4>
   11f88:	e063      	b.n	12052 <_dtoa_r+0x93a>
   11f8a:	9b16      	ldr	r3, [sp, #88]	@ 0x58
   11f8c:	f1c3 0336 	rsb	r3, r3, #54	@ 0x36
   11f90:	e746      	b.n	11e20 <_dtoa_r+0x708>
   11f92:	bf00      	nop
   11f94:	3fe00000 	svccc	0x00e00000
   11f98:	40240000 	eormi	r0, r4, r0
   11f9c:	9b03      	ldr	r3, [sp, #12]
   11f9e:	1e5c      	subs	r4, r3, #1
   11fa0:	9b0a      	ldr	r3, [sp, #40]	@ 0x28
   11fa2:	42a3      	cmp	r3, r4
   11fa4:	db09      	blt.n	11fba <_dtoa_r+0x8a2>
   11fa6:	1b1c      	subs	r4, r3, r4
   11fa8:	9b03      	ldr	r3, [sp, #12]
   11faa:	2b00      	cmp	r3, #0
   11fac:	f6bf af39 	bge.w	11e22 <_dtoa_r+0x70a>
   11fb0:	9b03      	ldr	r3, [sp, #12]
   11fb2:	eba8 0603 	sub.w	r6, r8, r3
   11fb6:	2300      	movs	r3, #0
   11fb8:	e734      	b.n	11e24 <_dtoa_r+0x70c>
   11fba:	9b0a      	ldr	r3, [sp, #40]	@ 0x28
   11fbc:	9a0f      	ldr	r2, [sp, #60]	@ 0x3c
   11fbe:	940a      	str	r4, [sp, #40]	@ 0x28
   11fc0:	1ae3      	subs	r3, r4, r3
   11fc2:	441a      	add	r2, r3
   11fc4:	920f      	str	r2, [sp, #60]	@ 0x3c
   11fc6:	9b03      	ldr	r3, [sp, #12]
   11fc8:	4646      	mov	r6, r8
   11fca:	2400      	movs	r4, #0
   11fcc:	e72a      	b.n	11e24 <_dtoa_r+0x70c>
   11fce:	9c0a      	ldr	r4, [sp, #40]	@ 0x28
   11fd0:	9d0b      	ldr	r5, [sp, #44]	@ 0x2c
   11fd2:	4646      	mov	r6, r8
   11fd4:	e72f      	b.n	11e36 <_dtoa_r+0x71e>
   11fd6:	9a0a      	ldr	r2, [sp, #40]	@ 0x28
   11fd8:	e756      	b.n	11e88 <_dtoa_r+0x770>
   11fda:	2300      	movs	r3, #0
   11fdc:	e782      	b.n	11ee4 <_dtoa_r+0x7cc>
   11fde:	9b04      	ldr	r3, [sp, #16]
   11fe0:	e780      	b.n	11ee4 <_dtoa_r+0x7cc>
   11fe2:	2300      	movs	r3, #0
   11fe4:	930a      	str	r3, [sp, #40]	@ 0x28
   11fe6:	e782      	b.n	11eee <_dtoa_r+0x7d6>
   11fe8:	d099      	beq.n	11f1e <_dtoa_r+0x806>
   11fea:	9a08      	ldr	r2, [sp, #32]
   11fec:	331c      	adds	r3, #28
   11fee:	441a      	add	r2, r3
   11ff0:	4498      	add	r8, r3
   11ff2:	441e      	add	r6, r3
   11ff4:	9208      	str	r2, [sp, #32]
   11ff6:	e792      	b.n	11f1e <_dtoa_r+0x806>
   11ff8:	4603      	mov	r3, r0
   11ffa:	e7f6      	b.n	11fea <_dtoa_r+0x8d2>
   11ffc:	9b03      	ldr	r3, [sp, #12]
   11ffe:	9706      	str	r7, [sp, #24]
   12000:	2b00      	cmp	r3, #0
   12002:	dc20      	bgt.n	12046 <_dtoa_r+0x92e>
   12004:	9300      	str	r3, [sp, #0]
   12006:	9b09      	ldr	r3, [sp, #36]	@ 0x24
   12008:	2b02      	cmp	r3, #2
   1200a:	dd1e      	ble.n	1204a <_dtoa_r+0x932>
   1200c:	9b00      	ldr	r3, [sp, #0]
   1200e:	2b00      	cmp	r3, #0
   12010:	f47f adc2 	bne.w	11b98 <_dtoa_r+0x480>
   12014:	4621      	mov	r1, r4
   12016:	2205      	movs	r2, #5
   12018:	4658      	mov	r0, fp
   1201a:	f000 fab1 	bl	12580 <__multadd>
   1201e:	4601      	mov	r1, r0
   12020:	4604      	mov	r4, r0
   12022:	4648      	mov	r0, r9
   12024:	f000 fd06 	bl	12a34 <__mcmp>
   12028:	2800      	cmp	r0, #0
   1202a:	f77f adb5 	ble.w	11b98 <_dtoa_r+0x480>
   1202e:	4656      	mov	r6, sl
   12030:	2331      	movs	r3, #49	@ 0x31
   12032:	f806 3b01 	strb.w	r3, [r6], #1
   12036:	9b06      	ldr	r3, [sp, #24]
   12038:	3301      	adds	r3, #1
   1203a:	9306      	str	r3, [sp, #24]
   1203c:	e5b0      	b.n	11ba0 <_dtoa_r+0x488>
   1203e:	9c03      	ldr	r4, [sp, #12]
   12040:	9706      	str	r7, [sp, #24]
   12042:	4625      	mov	r5, r4
   12044:	e7f3      	b.n	1202e <_dtoa_r+0x916>
   12046:	9b03      	ldr	r3, [sp, #12]
   12048:	9300      	str	r3, [sp, #0]
   1204a:	9b0b      	ldr	r3, [sp, #44]	@ 0x2c
   1204c:	2b00      	cmp	r3, #0
   1204e:	f000 8103 	beq.w	12258 <_dtoa_r+0xb40>
   12052:	2e00      	cmp	r6, #0
   12054:	dd05      	ble.n	12062 <_dtoa_r+0x94a>
   12056:	4629      	mov	r1, r5
   12058:	4632      	mov	r2, r6
   1205a:	4658      	mov	r0, fp
   1205c:	f000 fc7e 	bl	1295c <__lshift>
   12060:	4605      	mov	r5, r0
   12062:	9b0a      	ldr	r3, [sp, #40]	@ 0x28
   12064:	2b00      	cmp	r3, #0
   12066:	d05a      	beq.n	1211e <_dtoa_r+0xa06>
   12068:	6869      	ldr	r1, [r5, #4]
   1206a:	4658      	mov	r0, fp
   1206c:	f000 fa26 	bl	124bc <_Balloc>
   12070:	4606      	mov	r6, r0
   12072:	b928      	cbnz	r0, 12080 <_dtoa_r+0x968>
   12074:	4b83      	ldr	r3, [pc, #524]	@ (12284 <_dtoa_r+0xb6c>)
   12076:	4602      	mov	r2, r0
   12078:	f240 21ef 	movw	r1, #751	@ 0x2ef
   1207c:	f7ff bb63 	b.w	11746 <_dtoa_r+0x2e>
   12080:	692a      	ldr	r2, [r5, #16]
   12082:	3202      	adds	r2, #2
   12084:	0092      	lsls	r2, r2, #2
   12086:	f105 010c 	add.w	r1, r5, #12
   1208a:	300c      	adds	r0, #12
   1208c:	f000 f908 	bl	122a0 <memcpy>
   12090:	2201      	movs	r2, #1
   12092:	4631      	mov	r1, r6
   12094:	4658      	mov	r0, fp
   12096:	f000 fc61 	bl	1295c <__lshift>
   1209a:	f10a 0301 	add.w	r3, sl, #1
   1209e:	9303      	str	r3, [sp, #12]
   120a0:	9b00      	ldr	r3, [sp, #0]
   120a2:	4453      	add	r3, sl
   120a4:	930b      	str	r3, [sp, #44]	@ 0x2c
   120a6:	9b04      	ldr	r3, [sp, #16]
   120a8:	f003 0301 	and.w	r3, r3, #1
   120ac:	462f      	mov	r7, r5
   120ae:	930a      	str	r3, [sp, #40]	@ 0x28
   120b0:	4605      	mov	r5, r0
   120b2:	9b03      	ldr	r3, [sp, #12]
   120b4:	4621      	mov	r1, r4
   120b6:	3b01      	subs	r3, #1
   120b8:	4648      	mov	r0, r9
   120ba:	9300      	str	r3, [sp, #0]
   120bc:	f7ff faa2 	bl	11604 <quorem>
   120c0:	4639      	mov	r1, r7
   120c2:	9004      	str	r0, [sp, #16]
   120c4:	f100 0830 	add.w	r8, r0, #48	@ 0x30
   120c8:	4648      	mov	r0, r9
   120ca:	f000 fcb3 	bl	12a34 <__mcmp>
   120ce:	462a      	mov	r2, r5
   120d0:	9008      	str	r0, [sp, #32]
   120d2:	4621      	mov	r1, r4
   120d4:	4658      	mov	r0, fp
   120d6:	f000 fcc9 	bl	12a6c <__mdiff>
   120da:	68c2      	ldr	r2, [r0, #12]
   120dc:	4606      	mov	r6, r0
   120de:	bb02      	cbnz	r2, 12122 <_dtoa_r+0xa0a>
   120e0:	4601      	mov	r1, r0
   120e2:	4648      	mov	r0, r9
   120e4:	f000 fca6 	bl	12a34 <__mcmp>
   120e8:	4602      	mov	r2, r0
   120ea:	4631      	mov	r1, r6
   120ec:	4658      	mov	r0, fp
   120ee:	920e      	str	r2, [sp, #56]	@ 0x38
   120f0:	f000 fa24 	bl	1253c <_Bfree>
   120f4:	9b09      	ldr	r3, [sp, #36]	@ 0x24
   120f6:	9a0e      	ldr	r2, [sp, #56]	@ 0x38
   120f8:	9e03      	ldr	r6, [sp, #12]
   120fa:	ea42 0103 	orr.w	r1, r2, r3
   120fe:	9b0a      	ldr	r3, [sp, #40]	@ 0x28
   12100:	4319      	orrs	r1, r3
   12102:	d110      	bne.n	12126 <_dtoa_r+0xa0e>
   12104:	f1b8 0f39 	cmp.w	r8, #57	@ 0x39
   12108:	d029      	beq.n	1215e <_dtoa_r+0xa46>
   1210a:	9b08      	ldr	r3, [sp, #32]
   1210c:	2b00      	cmp	r3, #0
   1210e:	dd02      	ble.n	12116 <_dtoa_r+0x9fe>
   12110:	9b04      	ldr	r3, [sp, #16]
   12112:	f103 0831 	add.w	r8, r3, #49	@ 0x31
   12116:	9b00      	ldr	r3, [sp, #0]
   12118:	f883 8000 	strb.w	r8, [r3]
   1211c:	e541      	b.n	11ba2 <_dtoa_r+0x48a>
   1211e:	4628      	mov	r0, r5
   12120:	e7bb      	b.n	1209a <_dtoa_r+0x982>
   12122:	2201      	movs	r2, #1
   12124:	e7e1      	b.n	120ea <_dtoa_r+0x9d2>
   12126:	9b08      	ldr	r3, [sp, #32]
   12128:	2b00      	cmp	r3, #0
   1212a:	db04      	blt.n	12136 <_dtoa_r+0xa1e>
   1212c:	9909      	ldr	r1, [sp, #36]	@ 0x24
   1212e:	430b      	orrs	r3, r1
   12130:	990a      	ldr	r1, [sp, #40]	@ 0x28
   12132:	430b      	orrs	r3, r1
   12134:	d120      	bne.n	12178 <_dtoa_r+0xa60>
   12136:	2a00      	cmp	r2, #0
   12138:	dded      	ble.n	12116 <_dtoa_r+0x9fe>
   1213a:	4649      	mov	r1, r9
   1213c:	2201      	movs	r2, #1
   1213e:	4658      	mov	r0, fp
   12140:	f000 fc0c 	bl	1295c <__lshift>
   12144:	4621      	mov	r1, r4
   12146:	4681      	mov	r9, r0
   12148:	f000 fc74 	bl	12a34 <__mcmp>
   1214c:	2800      	cmp	r0, #0
   1214e:	dc03      	bgt.n	12158 <_dtoa_r+0xa40>
   12150:	d1e1      	bne.n	12116 <_dtoa_r+0x9fe>
   12152:	f018 0f01 	tst.w	r8, #1
   12156:	d0de      	beq.n	12116 <_dtoa_r+0x9fe>
   12158:	f1b8 0f39 	cmp.w	r8, #57	@ 0x39
   1215c:	d1d8      	bne.n	12110 <_dtoa_r+0x9f8>
   1215e:	9a00      	ldr	r2, [sp, #0]
   12160:	2339      	movs	r3, #57	@ 0x39
   12162:	7013      	strb	r3, [r2, #0]
   12164:	4633      	mov	r3, r6
   12166:	461e      	mov	r6, r3
   12168:	3b01      	subs	r3, #1
   1216a:	f816 2c01 	ldrb.w	r2, [r6, #-1]
   1216e:	2a39      	cmp	r2, #57	@ 0x39
   12170:	d051      	beq.n	12216 <_dtoa_r+0xafe>
   12172:	3201      	adds	r2, #1
   12174:	701a      	strb	r2, [r3, #0]
   12176:	e514      	b.n	11ba2 <_dtoa_r+0x48a>
   12178:	2a00      	cmp	r2, #0
   1217a:	dd07      	ble.n	1218c <_dtoa_r+0xa74>
   1217c:	f1b8 0f39 	cmp.w	r8, #57	@ 0x39
   12180:	d0ed      	beq.n	1215e <_dtoa_r+0xa46>
   12182:	9a00      	ldr	r2, [sp, #0]
   12184:	f108 0301 	add.w	r3, r8, #1
   12188:	7013      	strb	r3, [r2, #0]
   1218a:	e50a      	b.n	11ba2 <_dtoa_r+0x48a>
   1218c:	9b03      	ldr	r3, [sp, #12]
   1218e:	9a0b      	ldr	r2, [sp, #44]	@ 0x2c
   12190:	f803 8c01 	strb.w	r8, [r3, #-1]
   12194:	4293      	cmp	r3, r2
   12196:	d028      	beq.n	121ea <_dtoa_r+0xad2>
   12198:	4649      	mov	r1, r9
   1219a:	2300      	movs	r3, #0
   1219c:	220a      	movs	r2, #10
   1219e:	4658      	mov	r0, fp
   121a0:	f000 f9ee 	bl	12580 <__multadd>
   121a4:	42af      	cmp	r7, r5
   121a6:	4681      	mov	r9, r0
   121a8:	f04f 0300 	mov.w	r3, #0
   121ac:	f04f 020a 	mov.w	r2, #10
   121b0:	4639      	mov	r1, r7
   121b2:	4658      	mov	r0, fp
   121b4:	d107      	bne.n	121c6 <_dtoa_r+0xaae>
   121b6:	f000 f9e3 	bl	12580 <__multadd>
   121ba:	4607      	mov	r7, r0
   121bc:	4605      	mov	r5, r0
   121be:	9b03      	ldr	r3, [sp, #12]
   121c0:	3301      	adds	r3, #1
   121c2:	9303      	str	r3, [sp, #12]
   121c4:	e775      	b.n	120b2 <_dtoa_r+0x99a>
   121c6:	f000 f9db 	bl	12580 <__multadd>
   121ca:	4629      	mov	r1, r5
   121cc:	4607      	mov	r7, r0
   121ce:	2300      	movs	r3, #0
   121d0:	220a      	movs	r2, #10
   121d2:	4658      	mov	r0, fp
   121d4:	f000 f9d4 	bl	12580 <__multadd>
   121d8:	4605      	mov	r5, r0
   121da:	e7f0      	b.n	121be <_dtoa_r+0xaa6>
   121dc:	9b00      	ldr	r3, [sp, #0]
   121de:	2b00      	cmp	r3, #0
   121e0:	bfcc      	ite	gt
   121e2:	461e      	movgt	r6, r3
   121e4:	2601      	movle	r6, #1
   121e6:	4456      	add	r6, sl
   121e8:	2700      	movs	r7, #0
   121ea:	4649      	mov	r1, r9
   121ec:	2201      	movs	r2, #1
   121ee:	4658      	mov	r0, fp
   121f0:	f000 fbb4 	bl	1295c <__lshift>
   121f4:	4621      	mov	r1, r4
   121f6:	4681      	mov	r9, r0
   121f8:	f000 fc1c 	bl	12a34 <__mcmp>
   121fc:	2800      	cmp	r0, #0
   121fe:	dcb1      	bgt.n	12164 <_dtoa_r+0xa4c>
   12200:	d102      	bne.n	12208 <_dtoa_r+0xaf0>
   12202:	f018 0f01 	tst.w	r8, #1
   12206:	d1ad      	bne.n	12164 <_dtoa_r+0xa4c>
   12208:	4633      	mov	r3, r6
   1220a:	461e      	mov	r6, r3
   1220c:	f813 2d01 	ldrb.w	r2, [r3, #-1]!
   12210:	2a30      	cmp	r2, #48	@ 0x30
   12212:	d0fa      	beq.n	1220a <_dtoa_r+0xaf2>
   12214:	e4c5      	b.n	11ba2 <_dtoa_r+0x48a>
   12216:	459a      	cmp	sl, r3
   12218:	d1a5      	bne.n	12166 <_dtoa_r+0xa4e>
   1221a:	9b06      	ldr	r3, [sp, #24]
   1221c:	3301      	adds	r3, #1
   1221e:	9306      	str	r3, [sp, #24]
   12220:	2331      	movs	r3, #49	@ 0x31
   12222:	f88a 3000 	strb.w	r3, [sl]
   12226:	e4bc      	b.n	11ba2 <_dtoa_r+0x48a>
   12228:	9b23      	ldr	r3, [sp, #140]	@ 0x8c
   1222a:	f8df a05c 	ldr.w	sl, [pc, #92]	@ 12288 <_dtoa_r+0xb70>
   1222e:	b11b      	cbz	r3, 12238 <_dtoa_r+0xb20>
   12230:	f10a 0308 	add.w	r3, sl, #8
   12234:	9a23      	ldr	r2, [sp, #140]	@ 0x8c
   12236:	6013      	str	r3, [r2, #0]
   12238:	4650      	mov	r0, sl
   1223a:	b019      	add	sp, #100	@ 0x64
   1223c:	e8bd 8ff0 	ldmia.w	sp!, {r4, r5, r6, r7, r8, r9, sl, fp, pc}
   12240:	9b09      	ldr	r3, [sp, #36]	@ 0x24
   12242:	2b01      	cmp	r3, #1
   12244:	f77f ae38 	ble.w	11eb8 <_dtoa_r+0x7a0>
   12248:	9b0f      	ldr	r3, [sp, #60]	@ 0x3c
   1224a:	930a      	str	r3, [sp, #40]	@ 0x28
   1224c:	2001      	movs	r0, #1
   1224e:	e656      	b.n	11efe <_dtoa_r+0x7e6>
   12250:	9b00      	ldr	r3, [sp, #0]
   12252:	2b00      	cmp	r3, #0
   12254:	f77f aed7 	ble.w	12006 <_dtoa_r+0x8ee>
   12258:	4656      	mov	r6, sl
   1225a:	4621      	mov	r1, r4
   1225c:	4648      	mov	r0, r9
   1225e:	f7ff f9d1 	bl	11604 <quorem>
   12262:	f100 0830 	add.w	r8, r0, #48	@ 0x30
   12266:	f806 8b01 	strb.w	r8, [r6], #1
   1226a:	9b00      	ldr	r3, [sp, #0]
   1226c:	eba6 020a 	sub.w	r2, r6, sl
   12270:	4293      	cmp	r3, r2
   12272:	ddb3      	ble.n	121dc <_dtoa_r+0xac4>
   12274:	4649      	mov	r1, r9
   12276:	2300      	movs	r3, #0
   12278:	220a      	movs	r2, #10
   1227a:	4658      	mov	r0, fp
   1227c:	f000 f980 	bl	12580 <__multadd>
   12280:	4681      	mov	r9, r0
   12282:	e7ea      	b.n	1225a <_dtoa_r+0xb42>
   12284:	0001415f 	andeq	r4, r1, pc, asr r1
   12288:	000140e0 	andeq	r4, r1, r0, ror #1

Disassembly of section .text.__localeconv_l:

0001228c <__localeconv_l>:
   1228c:	30f0      	adds	r0, #240	@ 0xf0
   1228e:	4770      	bx	lr

Disassembly of section .text._localeconv_r:

00012290 <_localeconv_r>:
   12290:	4800      	ldr	r0, [pc, #0]	@ (12294 <_localeconv_r+0x4>)
   12292:	4770      	bx	lr
   12294:	000145b4 			@ <UNDEFINED> instruction: 0x000145b4

Disassembly of section .text.localeconv:

00012298 <localeconv>:
   12298:	4800      	ldr	r0, [pc, #0]	@ (1229c <localeconv+0x4>)
   1229a:	4770      	bx	lr
   1229c:	000145b4 			@ <UNDEFINED> instruction: 0x000145b4

Disassembly of section .text.memcpy:

000122a0 <memcpy>:
   122a0:	440a      	add	r2, r1
   122a2:	4291      	cmp	r1, r2
   122a4:	f100 33ff 	add.w	r3, r0, #4294967295	@ 0xffffffff
   122a8:	d100      	bne.n	122ac <memcpy+0xc>
   122aa:	4770      	bx	lr
   122ac:	b510      	push	{r4, lr}
   122ae:	f811 4b01 	ldrb.w	r4, [r1], #1
   122b2:	f803 4f01 	strb.w	r4, [r3, #1]!
   122b6:	4291      	cmp	r1, r2
   122b8:	d1f9      	bne.n	122ae <memcpy+0xe>
   122ba:	bd10      	pop	{r4, pc}

Disassembly of section .text.malloc:

000122bc <malloc>:
   122bc:	4b02      	ldr	r3, [pc, #8]	@ (122c8 <malloc+0xc>)
   122be:	4601      	mov	r1, r0
   122c0:	6818      	ldr	r0, [r3, #0]
   122c2:	f000 b82d 	b.w	12320 <_malloc_r>
   122c6:	bf00      	nop
   122c8:	00014630 	andeq	r4, r1, r0, lsr r6

Disassembly of section .text.free:

000122cc <free>:
   122cc:	4b02      	ldr	r3, [pc, #8]	@ (122d8 <free+0xc>)
   122ce:	4601      	mov	r1, r0
   122d0:	6818      	ldr	r0, [r3, #0]
   122d2:	f000 bde7 	b.w	12ea4 <_free_r>
   122d6:	bf00      	nop
   122d8:	00014630 	andeq	r4, r1, r0, lsr r6

Disassembly of section .text.sbrk_aligned:

000122dc <sbrk_aligned>:
   122dc:	b570      	push	{r4, r5, r6, lr}
   122de:	4e0f      	ldr	r6, [pc, #60]	@ (1231c <sbrk_aligned+0x40>)
   122e0:	460c      	mov	r4, r1
   122e2:	6831      	ldr	r1, [r6, #0]
   122e4:	4605      	mov	r5, r0
   122e6:	b911      	cbnz	r1, 122ee <sbrk_aligned+0x12>
   122e8:	f000 fdc4 	bl	12e74 <_sbrk_r>
   122ec:	6030      	str	r0, [r6, #0]
   122ee:	4621      	mov	r1, r4
   122f0:	4628      	mov	r0, r5
   122f2:	f000 fdbf 	bl	12e74 <_sbrk_r>
   122f6:	1c43      	adds	r3, r0, #1
   122f8:	d103      	bne.n	12302 <sbrk_aligned+0x26>
   122fa:	f04f 34ff 	mov.w	r4, #4294967295	@ 0xffffffff
   122fe:	4620      	mov	r0, r4
   12300:	bd70      	pop	{r4, r5, r6, pc}
   12302:	1cc4      	adds	r4, r0, #3
   12304:	f024 0403 	bic.w	r4, r4, #3
   12308:	42a0      	cmp	r0, r4
   1230a:	d0f8      	beq.n	122fe <sbrk_aligned+0x22>
   1230c:	1a21      	subs	r1, r4, r0
   1230e:	4628      	mov	r0, r5
   12310:	f000 fdb0 	bl	12e74 <_sbrk_r>
   12314:	3001      	adds	r0, #1
   12316:	d1f2      	bne.n	122fe <sbrk_aligned+0x22>
   12318:	e7ef      	b.n	122fa <sbrk_aligned+0x1e>
   1231a:	bf00      	nop
   1231c:	00014b90 	muleq	r1, r0, fp

Disassembly of section .text._malloc_r:

00012320 <_malloc_r>:
   12320:	e92d 43f8 	stmdb	sp!, {r3, r4, r5, r6, r7, r8, r9, lr}
   12324:	1ccd      	adds	r5, r1, #3
   12326:	f025 0503 	bic.w	r5, r5, #3
   1232a:	3508      	adds	r5, #8
   1232c:	2d0c      	cmp	r5, #12
   1232e:	bf38      	it	cc
   12330:	250c      	movcc	r5, #12
   12332:	2d00      	cmp	r5, #0
   12334:	4606      	mov	r6, r0
   12336:	db01      	blt.n	1233c <_malloc_r+0x1c>
   12338:	42a9      	cmp	r1, r5
   1233a:	d904      	bls.n	12346 <_malloc_r+0x26>
   1233c:	230c      	movs	r3, #12
   1233e:	6033      	str	r3, [r6, #0]
   12340:	2000      	movs	r0, #0
   12342:	e8bd 83f8 	ldmia.w	sp!, {r3, r4, r5, r6, r7, r8, r9, pc}
   12346:	f8df 80d4 	ldr.w	r8, [pc, #212]	@ 1241c <_malloc_r+0xfc>
   1234a:	f000 f8ab 	bl	124a4 <__malloc_lock>
   1234e:	f8d8 3000 	ldr.w	r3, [r8]
   12352:	461c      	mov	r4, r3
   12354:	bb44      	cbnz	r4, 123a8 <_malloc_r+0x88>
   12356:	4629      	mov	r1, r5
   12358:	4630      	mov	r0, r6
   1235a:	f7ff ffbf 	bl	122dc <sbrk_aligned>
   1235e:	1c43      	adds	r3, r0, #1
   12360:	4604      	mov	r4, r0
   12362:	d158      	bne.n	12416 <_malloc_r+0xf6>
   12364:	f8d8 4000 	ldr.w	r4, [r8]
   12368:	4627      	mov	r7, r4
   1236a:	2f00      	cmp	r7, #0
   1236c:	d143      	bne.n	123f6 <_malloc_r+0xd6>
   1236e:	2c00      	cmp	r4, #0
   12370:	d04b      	beq.n	1240a <_malloc_r+0xea>
   12372:	6823      	ldr	r3, [r4, #0]
   12374:	4639      	mov	r1, r7
   12376:	4630      	mov	r0, r6
   12378:	eb04 0903 	add.w	r9, r4, r3
   1237c:	f000 fd7a 	bl	12e74 <_sbrk_r>
   12380:	4581      	cmp	r9, r0
   12382:	d142      	bne.n	1240a <_malloc_r+0xea>
   12384:	6821      	ldr	r1, [r4, #0]
   12386:	1a6d      	subs	r5, r5, r1
   12388:	4629      	mov	r1, r5
   1238a:	4630      	mov	r0, r6
   1238c:	f7ff ffa6 	bl	122dc <sbrk_aligned>
   12390:	3001      	adds	r0, #1
   12392:	d03a      	beq.n	1240a <_malloc_r+0xea>
   12394:	6823      	ldr	r3, [r4, #0]
   12396:	442b      	add	r3, r5
   12398:	6023      	str	r3, [r4, #0]
   1239a:	f8d8 3000 	ldr.w	r3, [r8]
   1239e:	685a      	ldr	r2, [r3, #4]
   123a0:	bb62      	cbnz	r2, 123fc <_malloc_r+0xdc>
   123a2:	f8c8 7000 	str.w	r7, [r8]
   123a6:	e00f      	b.n	123c8 <_malloc_r+0xa8>
   123a8:	6822      	ldr	r2, [r4, #0]
   123aa:	1b52      	subs	r2, r2, r5
   123ac:	d420      	bmi.n	123f0 <_malloc_r+0xd0>
   123ae:	2a0b      	cmp	r2, #11
   123b0:	d917      	bls.n	123e2 <_malloc_r+0xc2>
   123b2:	1961      	adds	r1, r4, r5
   123b4:	42a3      	cmp	r3, r4
   123b6:	6025      	str	r5, [r4, #0]
   123b8:	bf18      	it	ne
   123ba:	6059      	strne	r1, [r3, #4]
   123bc:	6863      	ldr	r3, [r4, #4]
   123be:	bf08      	it	eq
   123c0:	f8c8 1000 	streq.w	r1, [r8]
   123c4:	5162      	str	r2, [r4, r5]
   123c6:	604b      	str	r3, [r1, #4]
   123c8:	4630      	mov	r0, r6
   123ca:	f000 f871 	bl	124b0 <__malloc_unlock>
   123ce:	f104 000b 	add.w	r0, r4, #11
   123d2:	1d23      	adds	r3, r4, #4
   123d4:	f020 0007 	bic.w	r0, r0, #7
   123d8:	1ac2      	subs	r2, r0, r3
   123da:	bf1c      	itt	ne
   123dc:	1a1b      	subne	r3, r3, r0
   123de:	50a3      	strne	r3, [r4, r2]
   123e0:	e7af      	b.n	12342 <_malloc_r+0x22>
   123e2:	6862      	ldr	r2, [r4, #4]
   123e4:	42a3      	cmp	r3, r4
   123e6:	bf0c      	ite	eq
   123e8:	f8c8 2000 	streq.w	r2, [r8]
   123ec:	605a      	strne	r2, [r3, #4]
   123ee:	e7eb      	b.n	123c8 <_malloc_r+0xa8>
   123f0:	4623      	mov	r3, r4
   123f2:	6864      	ldr	r4, [r4, #4]
   123f4:	e7ae      	b.n	12354 <_malloc_r+0x34>
   123f6:	463c      	mov	r4, r7
   123f8:	687f      	ldr	r7, [r7, #4]
   123fa:	e7b6      	b.n	1236a <_malloc_r+0x4a>
   123fc:	461a      	mov	r2, r3
   123fe:	685b      	ldr	r3, [r3, #4]
   12400:	42a3      	cmp	r3, r4
   12402:	d1fb      	bne.n	123fc <_malloc_r+0xdc>
   12404:	2300      	movs	r3, #0
   12406:	6053      	str	r3, [r2, #4]
   12408:	e7de      	b.n	123c8 <_malloc_r+0xa8>
   1240a:	230c      	movs	r3, #12
   1240c:	6033      	str	r3, [r6, #0]
   1240e:	4630      	mov	r0, r6
   12410:	f000 f84e 	bl	124b0 <__malloc_unlock>
   12414:	e794      	b.n	12340 <_malloc_r+0x20>
   12416:	6005      	str	r5, [r0, #0]
   12418:	e7d6      	b.n	123c8 <_malloc_r+0xa8>
   1241a:	bf00      	nop
   1241c:	00014b94 	muleq	r1, r4, fp

Disassembly of section .text.__assert_func:

00012420 <__assert_func>:
   12420:	b51f      	push	{r0, r1, r2, r3, r4, lr}
   12422:	4614      	mov	r4, r2
   12424:	461a      	mov	r2, r3
   12426:	4b09      	ldr	r3, [pc, #36]	@ (1244c <__assert_func+0x2c>)
   12428:	681b      	ldr	r3, [r3, #0]
   1242a:	4605      	mov	r5, r0
   1242c:	68d8      	ldr	r0, [r3, #12]
   1242e:	b14c      	cbz	r4, 12444 <__assert_func+0x24>
   12430:	4b07      	ldr	r3, [pc, #28]	@ (12450 <__assert_func+0x30>)
   12432:	9100      	str	r1, [sp, #0]
   12434:	e9cd 3401 	strd	r3, r4, [sp, #4]
   12438:	4906      	ldr	r1, [pc, #24]	@ (12454 <__assert_func+0x34>)
   1243a:	462b      	mov	r3, r5
   1243c:	f000 f820 	bl	12480 <fiprintf>
   12440:	f001 f8d4 	bl	135ec <abort>
   12444:	4b04      	ldr	r3, [pc, #16]	@ (12458 <__assert_func+0x38>)
   12446:	461c      	mov	r4, r3
   12448:	e7f3      	b.n	12432 <__assert_func+0x12>
   1244a:	bf00      	nop
   1244c:	00014630 	andeq	r4, r1, r0, lsr r6
   12450:	00014170 	andeq	r4, r1, r0, ror r1
   12454:	0001417d 	andeq	r4, r1, sp, ror r1
   12458:	000141ab 	andeq	r4, r1, fp, lsr #3

Disassembly of section .text.__assert:

0001245c <__assert>:
   1245c:	b508      	push	{r3, lr}
   1245e:	4613      	mov	r3, r2
   12460:	2200      	movs	r2, #0
   12462:	f7ff ffdd 	bl	12420 <__assert_func>

Disassembly of section .text._fprintf_r:

00012466 <_fiprintf_r>:
   12466:	b40c      	push	{r2, r3}
   12468:	b507      	push	{r0, r1, r2, lr}
   1246a:	ab04      	add	r3, sp, #16
   1246c:	f853 2b04 	ldr.w	r2, [r3], #4
   12470:	9301      	str	r3, [sp, #4]
   12472:	f000 fdcf 	bl	13014 <_vfiprintf_r>
   12476:	b003      	add	sp, #12
   12478:	f85d eb04 	ldr.w	lr, [sp], #4
   1247c:	b002      	add	sp, #8
   1247e:	4770      	bx	lr

Disassembly of section .text.fprintf:

00012480 <fiprintf>:
   12480:	b40e      	push	{r1, r2, r3}
   12482:	b503      	push	{r0, r1, lr}
   12484:	4601      	mov	r1, r0
   12486:	ab03      	add	r3, sp, #12
   12488:	4805      	ldr	r0, [pc, #20]	@ (124a0 <fiprintf+0x20>)
   1248a:	f853 2b04 	ldr.w	r2, [r3], #4
   1248e:	6800      	ldr	r0, [r0, #0]
   12490:	9301      	str	r3, [sp, #4]
   12492:	f000 fdbf 	bl	13014 <_vfiprintf_r>
   12496:	b002      	add	sp, #8
   12498:	f85d eb04 	ldr.w	lr, [sp], #4
   1249c:	b003      	add	sp, #12
   1249e:	4770      	bx	lr
   124a0:	00014630 	andeq	r4, r1, r0, lsr r6

Disassembly of section .text.__malloc_lock:

000124a4 <__malloc_lock>:
   124a4:	4801      	ldr	r0, [pc, #4]	@ (124ac <__malloc_lock+0x8>)
   124a6:	f000 bd4c 	b.w	12f42 <__retarget_lock_acquire_recursive>
   124aa:	bf00      	nop
   124ac:	00014b9c 	muleq	r1, ip, fp

Disassembly of section .text.__malloc_unlock:

000124b0 <__malloc_unlock>:
   124b0:	4801      	ldr	r0, [pc, #4]	@ (124b8 <__malloc_unlock+0x8>)
   124b2:	f000 bd4c 	b.w	12f4e <__retarget_lock_release_recursive>
   124b6:	bf00      	nop
   124b8:	00014b9c 	muleq	r1, ip, fp

Disassembly of section .text._Balloc:

000124bc <_Balloc>:
   124bc:	b570      	push	{r4, r5, r6, lr}
   124be:	69c6      	ldr	r6, [r0, #28]
   124c0:	4604      	mov	r4, r0
   124c2:	460d      	mov	r5, r1
   124c4:	b976      	cbnz	r6, 124e4 <_Balloc+0x28>
   124c6:	2010      	movs	r0, #16
   124c8:	f7ff fef8 	bl	122bc <malloc>
   124cc:	4602      	mov	r2, r0
   124ce:	61e0      	str	r0, [r4, #28]
   124d0:	b920      	cbnz	r0, 124dc <_Balloc+0x20>
   124d2:	4b18      	ldr	r3, [pc, #96]	@ (12534 <_Balloc+0x78>)
   124d4:	4818      	ldr	r0, [pc, #96]	@ (12538 <_Balloc+0x7c>)
   124d6:	216b      	movs	r1, #107	@ 0x6b
   124d8:	f7ff ffa2 	bl	12420 <__assert_func>
   124dc:	e9c0 6601 	strd	r6, r6, [r0, #4]
   124e0:	6006      	str	r6, [r0, #0]
   124e2:	60c6      	str	r6, [r0, #12]
   124e4:	69e6      	ldr	r6, [r4, #28]
   124e6:	68f3      	ldr	r3, [r6, #12]
   124e8:	b183      	cbz	r3, 1250c <_Balloc+0x50>
   124ea:	69e3      	ldr	r3, [r4, #28]
   124ec:	68db      	ldr	r3, [r3, #12]
   124ee:	f853 0025 	ldr.w	r0, [r3, r5, lsl #2]
   124f2:	b9b8      	cbnz	r0, 12524 <_Balloc+0x68>
   124f4:	2101      	movs	r1, #1
   124f6:	fa01 f605 	lsl.w	r6, r1, r5
   124fa:	1d72      	adds	r2, r6, #5
   124fc:	0092      	lsls	r2, r2, #2
   124fe:	4620      	mov	r0, r4
   12500:	f000 fca4 	bl	12e4c <_calloc_r>
   12504:	b160      	cbz	r0, 12520 <_Balloc+0x64>
   12506:	e9c0 5601 	strd	r5, r6, [r0, #4]
   1250a:	e00e      	b.n	1252a <_Balloc+0x6e>
   1250c:	2221      	movs	r2, #33	@ 0x21
   1250e:	2104      	movs	r1, #4
   12510:	4620      	mov	r0, r4
   12512:	f000 fc9b 	bl	12e4c <_calloc_r>
   12516:	69e3      	ldr	r3, [r4, #28]
   12518:	60f0      	str	r0, [r6, #12]
   1251a:	68db      	ldr	r3, [r3, #12]
   1251c:	2b00      	cmp	r3, #0
   1251e:	d1e4      	bne.n	124ea <_Balloc+0x2e>
   12520:	2000      	movs	r0, #0
   12522:	bd70      	pop	{r4, r5, r6, pc}
   12524:	6802      	ldr	r2, [r0, #0]
   12526:	f843 2025 	str.w	r2, [r3, r5, lsl #2]
   1252a:	2300      	movs	r3, #0
   1252c:	e9c0 3303 	strd	r3, r3, [r0, #12]
   12530:	e7f7      	b.n	12522 <_Balloc+0x66>
   12532:	bf00      	nop
   12534:	000141ac 	andeq	r4, r1, ip, lsr #3
   12538:	000141c3 	andeq	r4, r1, r3, asr #3

Disassembly of section .text._Bfree:

0001253c <_Bfree>:
   1253c:	b570      	push	{r4, r5, r6, lr}
   1253e:	69c6      	ldr	r6, [r0, #28]
   12540:	4605      	mov	r5, r0
   12542:	460c      	mov	r4, r1
   12544:	b976      	cbnz	r6, 12564 <_Bfree+0x28>
   12546:	2010      	movs	r0, #16
   12548:	f7ff feb8 	bl	122bc <malloc>
   1254c:	4602      	mov	r2, r0
   1254e:	61e8      	str	r0, [r5, #28]
   12550:	b920      	cbnz	r0, 1255c <_Bfree+0x20>
   12552:	4b09      	ldr	r3, [pc, #36]	@ (12578 <_Bfree+0x3c>)
   12554:	4809      	ldr	r0, [pc, #36]	@ (1257c <_Bfree+0x40>)
   12556:	218f      	movs	r1, #143	@ 0x8f
   12558:	f7ff ff62 	bl	12420 <__assert_func>
   1255c:	e9c0 6601 	strd	r6, r6, [r0, #4]
   12560:	6006      	str	r6, [r0, #0]
   12562:	60c6      	str	r6, [r0, #12]
   12564:	b13c      	cbz	r4, 12576 <_Bfree+0x3a>
   12566:	69eb      	ldr	r3, [r5, #28]
   12568:	6862      	ldr	r2, [r4, #4]
   1256a:	68db      	ldr	r3, [r3, #12]
   1256c:	f853 1022 	ldr.w	r1, [r3, r2, lsl #2]
   12570:	6021      	str	r1, [r4, #0]
   12572:	f843 4022 	str.w	r4, [r3, r2, lsl #2]
   12576:	bd70      	pop	{r4, r5, r6, pc}
   12578:	000141ac 	andeq	r4, r1, ip, lsr #3
   1257c:	000141c3 	andeq	r4, r1, r3, asr #3

Disassembly of section .text.__multadd:

00012580 <__multadd>:
   12580:	e92d 41f0 	stmdb	sp!, {r4, r5, r6, r7, r8, lr}
   12584:	690d      	ldr	r5, [r1, #16]
   12586:	4607      	mov	r7, r0
   12588:	460c      	mov	r4, r1
   1258a:	461e      	mov	r6, r3
   1258c:	f101 0c14 	add.w	ip, r1, #20
   12590:	2000      	movs	r0, #0
   12592:	f8dc 3000 	ldr.w	r3, [ip]
   12596:	b299      	uxth	r1, r3
   12598:	fb02 6101 	mla	r1, r2, r1, r6
   1259c:	0c1e      	lsrs	r6, r3, #16
   1259e:	0c0b      	lsrs	r3, r1, #16
   125a0:	fb02 3306 	mla	r3, r2, r6, r3
   125a4:	b289      	uxth	r1, r1
   125a6:	3001      	adds	r0, #1
   125a8:	eb01 4103 	add.w	r1, r1, r3, lsl #16
   125ac:	4285      	cmp	r5, r0
   125ae:	f84c 1b04 	str.w	r1, [ip], #4
   125b2:	ea4f 4613 	mov.w	r6, r3, lsr #16
   125b6:	dcec      	bgt.n	12592 <__multadd+0x12>
   125b8:	b30e      	cbz	r6, 125fe <__multadd+0x7e>
   125ba:	68a3      	ldr	r3, [r4, #8]
   125bc:	42ab      	cmp	r3, r5
   125be:	dc19      	bgt.n	125f4 <__multadd+0x74>
   125c0:	6861      	ldr	r1, [r4, #4]
   125c2:	4638      	mov	r0, r7
   125c4:	3101      	adds	r1, #1
   125c6:	f7ff ff79 	bl	124bc <_Balloc>
   125ca:	4680      	mov	r8, r0
   125cc:	b928      	cbnz	r0, 125da <__multadd+0x5a>
   125ce:	4602      	mov	r2, r0
   125d0:	4b0c      	ldr	r3, [pc, #48]	@ (12604 <__multadd+0x84>)
   125d2:	480d      	ldr	r0, [pc, #52]	@ (12608 <__multadd+0x88>)
   125d4:	21ba      	movs	r1, #186	@ 0xba
   125d6:	f7ff ff23 	bl	12420 <__assert_func>
   125da:	6922      	ldr	r2, [r4, #16]
   125dc:	3202      	adds	r2, #2
   125de:	f104 010c 	add.w	r1, r4, #12
   125e2:	0092      	lsls	r2, r2, #2
   125e4:	300c      	adds	r0, #12
   125e6:	f7ff fe5b 	bl	122a0 <memcpy>
   125ea:	4621      	mov	r1, r4
   125ec:	4638      	mov	r0, r7
   125ee:	f7ff ffa5 	bl	1253c <_Bfree>
   125f2:	4644      	mov	r4, r8
   125f4:	eb04 0385 	add.w	r3, r4, r5, lsl #2
   125f8:	3501      	adds	r5, #1
   125fa:	615e      	str	r6, [r3, #20]
   125fc:	6125      	str	r5, [r4, #16]
   125fe:	4620      	mov	r0, r4
   12600:	e8bd 81f0 	ldmia.w	sp!, {r4, r5, r6, r7, r8, pc}
   12604:	0001421d 	andeq	r4, r1, sp, lsl r2
   12608:	000141c3 	andeq	r4, r1, r3, asr #3

Disassembly of section .text.__s2b:

0001260c <__s2b>:
   1260c:	e92d 43f8 	stmdb	sp!, {r3, r4, r5, r6, r7, r8, r9, lr}
   12610:	460c      	mov	r4, r1
   12612:	4615      	mov	r5, r2
   12614:	461f      	mov	r7, r3
   12616:	2209      	movs	r2, #9
   12618:	3308      	adds	r3, #8
   1261a:	4606      	mov	r6, r0
   1261c:	fb93 f3f2 	sdiv	r3, r3, r2
   12620:	2100      	movs	r1, #0
   12622:	2201      	movs	r2, #1
   12624:	429a      	cmp	r2, r3
   12626:	db09      	blt.n	1263c <__s2b+0x30>
   12628:	4630      	mov	r0, r6
   1262a:	f7ff ff47 	bl	124bc <_Balloc>
   1262e:	b940      	cbnz	r0, 12642 <__s2b+0x36>
   12630:	4602      	mov	r2, r0
   12632:	4b19      	ldr	r3, [pc, #100]	@ (12698 <__s2b+0x8c>)
   12634:	4819      	ldr	r0, [pc, #100]	@ (1269c <__s2b+0x90>)
   12636:	21d3      	movs	r1, #211	@ 0xd3
   12638:	f7ff fef2 	bl	12420 <__assert_func>
   1263c:	0052      	lsls	r2, r2, #1
   1263e:	3101      	adds	r1, #1
   12640:	e7f0      	b.n	12624 <__s2b+0x18>
   12642:	9b08      	ldr	r3, [sp, #32]
   12644:	6143      	str	r3, [r0, #20]
   12646:	2d09      	cmp	r5, #9
   12648:	f04f 0301 	mov.w	r3, #1
   1264c:	6103      	str	r3, [r0, #16]
   1264e:	dd16      	ble.n	1267e <__s2b+0x72>
   12650:	f104 0909 	add.w	r9, r4, #9
   12654:	46c8      	mov	r8, r9
   12656:	442c      	add	r4, r5
   12658:	f818 3b01 	ldrb.w	r3, [r8], #1
   1265c:	4601      	mov	r1, r0
   1265e:	3b30      	subs	r3, #48	@ 0x30
   12660:	220a      	movs	r2, #10
   12662:	4630      	mov	r0, r6
   12664:	f7ff ff8c 	bl	12580 <__multadd>
   12668:	45a0      	cmp	r8, r4
   1266a:	d1f5      	bne.n	12658 <__s2b+0x4c>
   1266c:	f1a5 0408 	sub.w	r4, r5, #8
   12670:	444c      	add	r4, r9
   12672:	1b2d      	subs	r5, r5, r4
   12674:	1963      	adds	r3, r4, r5
   12676:	42bb      	cmp	r3, r7
   12678:	db04      	blt.n	12684 <__s2b+0x78>
   1267a:	e8bd 83f8 	ldmia.w	sp!, {r3, r4, r5, r6, r7, r8, r9, pc}
   1267e:	340a      	adds	r4, #10
   12680:	2509      	movs	r5, #9
   12682:	e7f6      	b.n	12672 <__s2b+0x66>
   12684:	f814 3b01 	ldrb.w	r3, [r4], #1
   12688:	4601      	mov	r1, r0
   1268a:	3b30      	subs	r3, #48	@ 0x30
   1268c:	220a      	movs	r2, #10
   1268e:	4630      	mov	r0, r6
   12690:	f7ff ff76 	bl	12580 <__multadd>
   12694:	e7ee      	b.n	12674 <__s2b+0x68>
   12696:	bf00      	nop
   12698:	0001421d 	andeq	r4, r1, sp, lsl r2
   1269c:	000141c3 	andeq	r4, r1, r3, asr #3

Disassembly of section .text.__hi0bits:

000126a0 <__hi0bits>:
   126a0:	f5b0 3f80 	cmp.w	r0, #65536	@ 0x10000
   126a4:	4603      	mov	r3, r0
   126a6:	bf36      	itet	cc
   126a8:	0403      	lslcc	r3, r0, #16
   126aa:	2000      	movcs	r0, #0
   126ac:	2010      	movcc	r0, #16
   126ae:	f1b3 7f80 	cmp.w	r3, #16777216	@ 0x1000000
   126b2:	bf3c      	itt	cc
   126b4:	021b      	lslcc	r3, r3, #8
   126b6:	3008      	addcc	r0, #8
   126b8:	f1b3 5f80 	cmp.w	r3, #268435456	@ 0x10000000
   126bc:	bf3c      	itt	cc
   126be:	011b      	lslcc	r3, r3, #4
   126c0:	3004      	addcc	r0, #4
   126c2:	f1b3 4f80 	cmp.w	r3, #1073741824	@ 0x40000000
   126c6:	bf3c      	itt	cc
   126c8:	009b      	lslcc	r3, r3, #2
   126ca:	3002      	addcc	r0, #2
   126cc:	2b00      	cmp	r3, #0
   126ce:	db05      	blt.n	126dc <__hi0bits+0x3c>
   126d0:	f013 4f80 	tst.w	r3, #1073741824	@ 0x40000000
   126d4:	f100 0001 	add.w	r0, r0, #1
   126d8:	bf08      	it	eq
   126da:	2020      	moveq	r0, #32
   126dc:	4770      	bx	lr

Disassembly of section .text.__lo0bits:

000126de <__lo0bits>:
   126de:	6803      	ldr	r3, [r0, #0]
   126e0:	4602      	mov	r2, r0
   126e2:	f013 0007 	ands.w	r0, r3, #7
   126e6:	d00b      	beq.n	12700 <__lo0bits+0x22>
   126e8:	07d9      	lsls	r1, r3, #31
   126ea:	d421      	bmi.n	12730 <__lo0bits+0x52>
   126ec:	0798      	lsls	r0, r3, #30
   126ee:	bf49      	itett	mi
   126f0:	085b      	lsrmi	r3, r3, #1
   126f2:	089b      	lsrpl	r3, r3, #2
   126f4:	2001      	movmi	r0, #1
   126f6:	6013      	strmi	r3, [r2, #0]
   126f8:	bf5c      	itt	pl
   126fa:	6013      	strpl	r3, [r2, #0]
   126fc:	2002      	movpl	r0, #2
   126fe:	4770      	bx	lr
   12700:	b299      	uxth	r1, r3
   12702:	b909      	cbnz	r1, 12708 <__lo0bits+0x2a>
   12704:	0c1b      	lsrs	r3, r3, #16
   12706:	2010      	movs	r0, #16
   12708:	b2d9      	uxtb	r1, r3
   1270a:	b909      	cbnz	r1, 12710 <__lo0bits+0x32>
   1270c:	3008      	adds	r0, #8
   1270e:	0a1b      	lsrs	r3, r3, #8
   12710:	0719      	lsls	r1, r3, #28
   12712:	bf04      	itt	eq
   12714:	091b      	lsreq	r3, r3, #4
   12716:	3004      	addeq	r0, #4
   12718:	0799      	lsls	r1, r3, #30
   1271a:	bf04      	itt	eq
   1271c:	089b      	lsreq	r3, r3, #2
   1271e:	3002      	addeq	r0, #2
   12720:	07d9      	lsls	r1, r3, #31
   12722:	d403      	bmi.n	1272c <__lo0bits+0x4e>
   12724:	085b      	lsrs	r3, r3, #1
   12726:	f100 0001 	add.w	r0, r0, #1
   1272a:	d003      	beq.n	12734 <__lo0bits+0x56>
   1272c:	6013      	str	r3, [r2, #0]
   1272e:	4770      	bx	lr
   12730:	2000      	movs	r0, #0
   12732:	4770      	bx	lr
   12734:	2020      	movs	r0, #32
   12736:	4770      	bx	lr

Disassembly of section .text.__i2b:

00012738 <__i2b>:
   12738:	b510      	push	{r4, lr}
   1273a:	460c      	mov	r4, r1
   1273c:	2101      	movs	r1, #1
   1273e:	f7ff febd 	bl	124bc <_Balloc>
   12742:	4602      	mov	r2, r0
   12744:	b928      	cbnz	r0, 12752 <__i2b+0x1a>
   12746:	4b05      	ldr	r3, [pc, #20]	@ (1275c <__i2b+0x24>)
   12748:	4805      	ldr	r0, [pc, #20]	@ (12760 <__i2b+0x28>)
   1274a:	f240 1145 	movw	r1, #325	@ 0x145
   1274e:	f7ff fe67 	bl	12420 <__assert_func>
   12752:	2301      	movs	r3, #1
   12754:	6144      	str	r4, [r0, #20]
   12756:	6103      	str	r3, [r0, #16]
   12758:	bd10      	pop	{r4, pc}
   1275a:	bf00      	nop
   1275c:	0001421d 	andeq	r4, r1, sp, lsl r2
   12760:	000141c3 	andeq	r4, r1, r3, asr #3

Disassembly of section .text.__multiply:

00012764 <__multiply>:
   12764:	e92d 4ff0 	stmdb	sp!, {r4, r5, r6, r7, r8, r9, sl, fp, lr}
   12768:	4617      	mov	r7, r2
   1276a:	690a      	ldr	r2, [r1, #16]
   1276c:	693b      	ldr	r3, [r7, #16]
   1276e:	429a      	cmp	r2, r3
   12770:	bfa8      	it	ge
   12772:	463b      	movge	r3, r7
   12774:	4689      	mov	r9, r1
   12776:	bfa4      	itt	ge
   12778:	460f      	movge	r7, r1
   1277a:	4699      	movge	r9, r3
   1277c:	693d      	ldr	r5, [r7, #16]
   1277e:	f8d9 a010 	ldr.w	sl, [r9, #16]
   12782:	68bb      	ldr	r3, [r7, #8]
   12784:	6879      	ldr	r1, [r7, #4]
   12786:	eb05 060a 	add.w	r6, r5, sl
   1278a:	42b3      	cmp	r3, r6
   1278c:	b085      	sub	sp, #20
   1278e:	bfb8      	it	lt
   12790:	3101      	addlt	r1, #1
   12792:	f7ff fe93 	bl	124bc <_Balloc>
   12796:	b930      	cbnz	r0, 127a6 <__multiply+0x42>
   12798:	4602      	mov	r2, r0
   1279a:	4b41      	ldr	r3, [pc, #260]	@ (128a0 <__multiply+0x13c>)
   1279c:	4841      	ldr	r0, [pc, #260]	@ (128a4 <__multiply+0x140>)
   1279e:	f44f 71b1 	mov.w	r1, #354	@ 0x162
   127a2:	f7ff fe3d 	bl	12420 <__assert_func>
   127a6:	f100 0414 	add.w	r4, r0, #20
   127aa:	eb04 0e86 	add.w	lr, r4, r6, lsl #2
   127ae:	4623      	mov	r3, r4
   127b0:	2200      	movs	r2, #0
   127b2:	4573      	cmp	r3, lr
   127b4:	d320      	bcc.n	127f8 <__multiply+0x94>
   127b6:	f107 0814 	add.w	r8, r7, #20
   127ba:	f109 0114 	add.w	r1, r9, #20
   127be:	eb08 0585 	add.w	r5, r8, r5, lsl #2
   127c2:	eb01 038a 	add.w	r3, r1, sl, lsl #2
   127c6:	9302      	str	r3, [sp, #8]
   127c8:	1beb      	subs	r3, r5, r7
   127ca:	3b15      	subs	r3, #21
   127cc:	f023 0303 	bic.w	r3, r3, #3
   127d0:	3304      	adds	r3, #4
   127d2:	3715      	adds	r7, #21
   127d4:	42bd      	cmp	r5, r7
   127d6:	bf38      	it	cc
   127d8:	2304      	movcc	r3, #4
   127da:	9301      	str	r3, [sp, #4]
   127dc:	9b02      	ldr	r3, [sp, #8]
   127de:	9103      	str	r1, [sp, #12]
   127e0:	428b      	cmp	r3, r1
   127e2:	d80c      	bhi.n	127fe <__multiply+0x9a>
   127e4:	2e00      	cmp	r6, #0
   127e6:	dd03      	ble.n	127f0 <__multiply+0x8c>
   127e8:	f85e 3d04 	ldr.w	r3, [lr, #-4]!
   127ec:	2b00      	cmp	r3, #0
   127ee:	d055      	beq.n	1289c <__multiply+0x138>
   127f0:	6106      	str	r6, [r0, #16]
   127f2:	b005      	add	sp, #20
   127f4:	e8bd 8ff0 	ldmia.w	sp!, {r4, r5, r6, r7, r8, r9, sl, fp, pc}
   127f8:	f843 2b04 	str.w	r2, [r3], #4
   127fc:	e7d9      	b.n	127b2 <__multiply+0x4e>
   127fe:	f8b1 a000 	ldrh.w	sl, [r1]
   12802:	f1ba 0f00 	cmp.w	sl, #0
   12806:	d01f      	beq.n	12848 <__multiply+0xe4>
   12808:	46c4      	mov	ip, r8
   1280a:	46a1      	mov	r9, r4
   1280c:	2700      	movs	r7, #0
   1280e:	f85c 2b04 	ldr.w	r2, [ip], #4
   12812:	f8d9 3000 	ldr.w	r3, [r9]
   12816:	fa1f fb82 	uxth.w	fp, r2
   1281a:	b29b      	uxth	r3, r3
   1281c:	fb0a 330b 	mla	r3, sl, fp, r3
   12820:	443b      	add	r3, r7
   12822:	f8d9 7000 	ldr.w	r7, [r9]
   12826:	0c12      	lsrs	r2, r2, #16
   12828:	0c3f      	lsrs	r7, r7, #16
   1282a:	fb0a 7202 	mla	r2, sl, r2, r7
   1282e:	eb02 4213 	add.w	r2, r2, r3, lsr #16
   12832:	b29b      	uxth	r3, r3
   12834:	ea43 4302 	orr.w	r3, r3, r2, lsl #16
   12838:	4565      	cmp	r5, ip
   1283a:	f849 3b04 	str.w	r3, [r9], #4
   1283e:	ea4f 4712 	mov.w	r7, r2, lsr #16
   12842:	d8e4      	bhi.n	1280e <__multiply+0xaa>
   12844:	9b01      	ldr	r3, [sp, #4]
   12846:	50e7      	str	r7, [r4, r3]
   12848:	9b03      	ldr	r3, [sp, #12]
   1284a:	f8b3 9002 	ldrh.w	r9, [r3, #2]
   1284e:	3104      	adds	r1, #4
   12850:	f1b9 0f00 	cmp.w	r9, #0
   12854:	d020      	beq.n	12898 <__multiply+0x134>
   12856:	6823      	ldr	r3, [r4, #0]
   12858:	4647      	mov	r7, r8
   1285a:	46a4      	mov	ip, r4
   1285c:	f04f 0a00 	mov.w	sl, #0
   12860:	f8b7 b000 	ldrh.w	fp, [r7]
   12864:	f8bc 2002 	ldrh.w	r2, [ip, #2]
   12868:	fb09 220b 	mla	r2, r9, fp, r2
   1286c:	4452      	add	r2, sl
   1286e:	b29b      	uxth	r3, r3
   12870:	ea43 4302 	orr.w	r3, r3, r2, lsl #16
   12874:	f84c 3b04 	str.w	r3, [ip], #4
   12878:	f857 3b04 	ldr.w	r3, [r7], #4
   1287c:	ea4f 4a13 	mov.w	sl, r3, lsr #16
   12880:	f8bc 3000 	ldrh.w	r3, [ip]
   12884:	fb09 330a 	mla	r3, r9, sl, r3
   12888:	eb03 4312 	add.w	r3, r3, r2, lsr #16
   1288c:	42bd      	cmp	r5, r7
   1288e:	ea4f 4a13 	mov.w	sl, r3, lsr #16
   12892:	d8e5      	bhi.n	12860 <__multiply+0xfc>
   12894:	9a01      	ldr	r2, [sp, #4]
   12896:	50a3      	str	r3, [r4, r2]
   12898:	3404      	adds	r4, #4
   1289a:	e79f      	b.n	127dc <__multiply+0x78>
   1289c:	3e01      	subs	r6, #1
   1289e:	e7a1      	b.n	127e4 <__multiply+0x80>
   128a0:	0001421d 	andeq	r4, r1, sp, lsl r2
   128a4:	000141c3 	andeq	r4, r1, r3, asr #3

Disassembly of section .text.__pow5mult:

000128a8 <__pow5mult>:
   128a8:	e92d 43f8 	stmdb	sp!, {r3, r4, r5, r6, r7, r8, r9, lr}
   128ac:	4615      	mov	r5, r2
   128ae:	f012 0203 	ands.w	r2, r2, #3
   128b2:	4607      	mov	r7, r0
   128b4:	460e      	mov	r6, r1
   128b6:	d007      	beq.n	128c8 <__pow5mult+0x20>
   128b8:	4c25      	ldr	r4, [pc, #148]	@ (12950 <__pow5mult+0xa8>)
   128ba:	3a01      	subs	r2, #1
   128bc:	2300      	movs	r3, #0
   128be:	f854 2022 	ldr.w	r2, [r4, r2, lsl #2]
   128c2:	f7ff fe5d 	bl	12580 <__multadd>
   128c6:	4606      	mov	r6, r0
   128c8:	10ad      	asrs	r5, r5, #2
   128ca:	d03d      	beq.n	12948 <__pow5mult+0xa0>
   128cc:	69fc      	ldr	r4, [r7, #28]
   128ce:	b97c      	cbnz	r4, 128f0 <__pow5mult+0x48>
   128d0:	2010      	movs	r0, #16
   128d2:	f7ff fcf3 	bl	122bc <malloc>
   128d6:	4602      	mov	r2, r0
   128d8:	61f8      	str	r0, [r7, #28]
   128da:	b928      	cbnz	r0, 128e8 <__pow5mult+0x40>
   128dc:	4b1d      	ldr	r3, [pc, #116]	@ (12954 <__pow5mult+0xac>)
   128de:	481e      	ldr	r0, [pc, #120]	@ (12958 <__pow5mult+0xb0>)
   128e0:	f240 11b3 	movw	r1, #435	@ 0x1b3
   128e4:	f7ff fd9c 	bl	12420 <__assert_func>
   128e8:	e9c0 4401 	strd	r4, r4, [r0, #4]
   128ec:	6004      	str	r4, [r0, #0]
   128ee:	60c4      	str	r4, [r0, #12]
   128f0:	f8d7 801c 	ldr.w	r8, [r7, #28]
   128f4:	f8d8 4008 	ldr.w	r4, [r8, #8]
   128f8:	b94c      	cbnz	r4, 1290e <__pow5mult+0x66>
   128fa:	f240 2171 	movw	r1, #625	@ 0x271
   128fe:	4638      	mov	r0, r7
   12900:	f7ff ff1a 	bl	12738 <__i2b>
   12904:	2300      	movs	r3, #0
   12906:	f8c8 0008 	str.w	r0, [r8, #8]
   1290a:	4604      	mov	r4, r0
   1290c:	6003      	str	r3, [r0, #0]
   1290e:	f04f 0900 	mov.w	r9, #0
   12912:	07eb      	lsls	r3, r5, #31
   12914:	d50a      	bpl.n	1292c <__pow5mult+0x84>
   12916:	4631      	mov	r1, r6
   12918:	4622      	mov	r2, r4
   1291a:	4638      	mov	r0, r7
   1291c:	f7ff ff22 	bl	12764 <__multiply>
   12920:	4631      	mov	r1, r6
   12922:	4680      	mov	r8, r0
   12924:	4638      	mov	r0, r7
   12926:	f7ff fe09 	bl	1253c <_Bfree>
   1292a:	4646      	mov	r6, r8
   1292c:	106d      	asrs	r5, r5, #1
   1292e:	d00b      	beq.n	12948 <__pow5mult+0xa0>
   12930:	6820      	ldr	r0, [r4, #0]
   12932:	b938      	cbnz	r0, 12944 <__pow5mult+0x9c>
   12934:	4622      	mov	r2, r4
   12936:	4621      	mov	r1, r4
   12938:	4638      	mov	r0, r7
   1293a:	f7ff ff13 	bl	12764 <__multiply>
   1293e:	6020      	str	r0, [r4, #0]
   12940:	f8c0 9000 	str.w	r9, [r0]
   12944:	4604      	mov	r4, r0
   12946:	e7e4      	b.n	12912 <__pow5mult+0x6a>
   12948:	4630      	mov	r0, r6
   1294a:	e8bd 83f8 	ldmia.w	sp!, {r3, r4, r5, r6, r7, r8, r9, pc}
   1294e:	bf00      	nop
   12950:	00014230 	andeq	r4, r1, r0, lsr r2
   12954:	000141ac 	andeq	r4, r1, ip, lsr #3
   12958:	000141c3 	andeq	r4, r1, r3, asr #3

Disassembly of section .text.__lshift:

0001295c <__lshift>:
   1295c:	e92d 47f0 	stmdb	sp!, {r4, r5, r6, r7, r8, r9, sl, lr}
   12960:	460c      	mov	r4, r1
   12962:	6849      	ldr	r1, [r1, #4]
   12964:	6923      	ldr	r3, [r4, #16]
   12966:	eb03 1862 	add.w	r8, r3, r2, asr #5
   1296a:	68a3      	ldr	r3, [r4, #8]
   1296c:	4607      	mov	r7, r0
   1296e:	4691      	mov	r9, r2
   12970:	ea4f 1a62 	mov.w	sl, r2, asr #5
   12974:	f108 0601 	add.w	r6, r8, #1
   12978:	42b3      	cmp	r3, r6
   1297a:	db0b      	blt.n	12994 <__lshift+0x38>
   1297c:	4638      	mov	r0, r7
   1297e:	f7ff fd9d 	bl	124bc <_Balloc>
   12982:	4605      	mov	r5, r0
   12984:	b948      	cbnz	r0, 1299a <__lshift+0x3e>
   12986:	4602      	mov	r2, r0
   12988:	4b28      	ldr	r3, [pc, #160]	@ (12a2c <__lshift+0xd0>)
   1298a:	4829      	ldr	r0, [pc, #164]	@ (12a30 <__lshift+0xd4>)
   1298c:	f44f 71ef 	mov.w	r1, #478	@ 0x1de
   12990:	f7ff fd46 	bl	12420 <__assert_func>
   12994:	3101      	adds	r1, #1
   12996:	005b      	lsls	r3, r3, #1
   12998:	e7ee      	b.n	12978 <__lshift+0x1c>
   1299a:	2300      	movs	r3, #0
   1299c:	f100 0114 	add.w	r1, r0, #20
   129a0:	f100 0210 	add.w	r2, r0, #16
   129a4:	4618      	mov	r0, r3
   129a6:	4553      	cmp	r3, sl
   129a8:	db33      	blt.n	12a12 <__lshift+0xb6>
   129aa:	6920      	ldr	r0, [r4, #16]
   129ac:	ea2a 7aea 	bic.w	sl, sl, sl, asr #31
   129b0:	f104 0314 	add.w	r3, r4, #20
   129b4:	f019 091f 	ands.w	r9, r9, #31
   129b8:	eb01 018a 	add.w	r1, r1, sl, lsl #2
   129bc:	eb03 0c80 	add.w	ip, r3, r0, lsl #2
   129c0:	d02b      	beq.n	12a1a <__lshift+0xbe>
   129c2:	f1c9 0e20 	rsb	lr, r9, #32
   129c6:	468a      	mov	sl, r1
   129c8:	2200      	movs	r2, #0
   129ca:	6818      	ldr	r0, [r3, #0]
   129cc:	fa00 f009 	lsl.w	r0, r0, r9
   129d0:	4310      	orrs	r0, r2
   129d2:	f84a 0b04 	str.w	r0, [sl], #4
   129d6:	f853 2b04 	ldr.w	r2, [r3], #4
   129da:	459c      	cmp	ip, r3
   129dc:	fa22 f20e 	lsr.w	r2, r2, lr
   129e0:	d8f3      	bhi.n	129ca <__lshift+0x6e>
   129e2:	ebac 0304 	sub.w	r3, ip, r4
   129e6:	3b15      	subs	r3, #21
   129e8:	f023 0303 	bic.w	r3, r3, #3
   129ec:	3304      	adds	r3, #4
   129ee:	f104 0015 	add.w	r0, r4, #21
   129f2:	4560      	cmp	r0, ip
   129f4:	bf88      	it	hi
   129f6:	2304      	movhi	r3, #4
   129f8:	50ca      	str	r2, [r1, r3]
   129fa:	b10a      	cbz	r2, 12a00 <__lshift+0xa4>
   129fc:	f108 0602 	add.w	r6, r8, #2
   12a00:	3e01      	subs	r6, #1
   12a02:	4638      	mov	r0, r7
   12a04:	612e      	str	r6, [r5, #16]
   12a06:	4621      	mov	r1, r4
   12a08:	f7ff fd98 	bl	1253c <_Bfree>
   12a0c:	4628      	mov	r0, r5
   12a0e:	e8bd 87f0 	ldmia.w	sp!, {r4, r5, r6, r7, r8, r9, sl, pc}
   12a12:	f842 0f04 	str.w	r0, [r2, #4]!
   12a16:	3301      	adds	r3, #1
   12a18:	e7c5      	b.n	129a6 <__lshift+0x4a>
   12a1a:	3904      	subs	r1, #4
   12a1c:	f853 2b04 	ldr.w	r2, [r3], #4
   12a20:	f841 2f04 	str.w	r2, [r1, #4]!
   12a24:	459c      	cmp	ip, r3
   12a26:	d8f9      	bhi.n	12a1c <__lshift+0xc0>
   12a28:	e7ea      	b.n	12a00 <__lshift+0xa4>
   12a2a:	bf00      	nop
   12a2c:	0001421d 	andeq	r4, r1, sp, lsl r2
   12a30:	000141c3 	andeq	r4, r1, r3, asr #3

Disassembly of section .text.__mcmp:

00012a34 <__mcmp>:
   12a34:	690a      	ldr	r2, [r1, #16]
   12a36:	4603      	mov	r3, r0
   12a38:	6900      	ldr	r0, [r0, #16]
   12a3a:	1a80      	subs	r0, r0, r2
   12a3c:	b530      	push	{r4, r5, lr}
   12a3e:	d10e      	bne.n	12a5e <__mcmp+0x2a>
   12a40:	3314      	adds	r3, #20
   12a42:	3114      	adds	r1, #20
   12a44:	eb03 0482 	add.w	r4, r3, r2, lsl #2
   12a48:	eb01 0182 	add.w	r1, r1, r2, lsl #2
   12a4c:	f854 5d04 	ldr.w	r5, [r4, #-4]!
   12a50:	f851 2d04 	ldr.w	r2, [r1, #-4]!
   12a54:	4295      	cmp	r5, r2
   12a56:	d003      	beq.n	12a60 <__mcmp+0x2c>
   12a58:	d205      	bcs.n	12a66 <__mcmp+0x32>
   12a5a:	f04f 30ff 	mov.w	r0, #4294967295	@ 0xffffffff
   12a5e:	bd30      	pop	{r4, r5, pc}
   12a60:	42a3      	cmp	r3, r4
   12a62:	d3f3      	bcc.n	12a4c <__mcmp+0x18>
   12a64:	e7fb      	b.n	12a5e <__mcmp+0x2a>
   12a66:	2001      	movs	r0, #1
   12a68:	e7f9      	b.n	12a5e <__mcmp+0x2a>

Disassembly of section .text.__mdiff:

00012a6c <__mdiff>:
   12a6c:	e92d 4ff7 	stmdb	sp!, {r0, r1, r2, r4, r5, r6, r7, r8, r9, sl, fp, lr}
   12a70:	4689      	mov	r9, r1
   12a72:	4606      	mov	r6, r0
   12a74:	4611      	mov	r1, r2
   12a76:	4648      	mov	r0, r9
   12a78:	4614      	mov	r4, r2
   12a7a:	f7ff ffdb 	bl	12a34 <__mcmp>
   12a7e:	1e05      	subs	r5, r0, #0
   12a80:	d112      	bne.n	12aa8 <__mdiff+0x3c>
   12a82:	4629      	mov	r1, r5
   12a84:	4630      	mov	r0, r6
   12a86:	f7ff fd19 	bl	124bc <_Balloc>
   12a8a:	4602      	mov	r2, r0
   12a8c:	b928      	cbnz	r0, 12a9a <__mdiff+0x2e>
   12a8e:	4b3f      	ldr	r3, [pc, #252]	@ (12b8c <__mdiff+0x120>)
   12a90:	f240 2137 	movw	r1, #567	@ 0x237
   12a94:	483e      	ldr	r0, [pc, #248]	@ (12b90 <__mdiff+0x124>)
   12a96:	f7ff fcc3 	bl	12420 <__assert_func>
   12a9a:	2301      	movs	r3, #1
   12a9c:	e9c0 3504 	strd	r3, r5, [r0, #16]
   12aa0:	4610      	mov	r0, r2
   12aa2:	b003      	add	sp, #12
   12aa4:	e8bd 8ff0 	ldmia.w	sp!, {r4, r5, r6, r7, r8, r9, sl, fp, pc}
   12aa8:	bfbc      	itt	lt
   12aaa:	464b      	movlt	r3, r9
   12aac:	46a1      	movlt	r9, r4
   12aae:	4630      	mov	r0, r6
   12ab0:	f8d9 1004 	ldr.w	r1, [r9, #4]
   12ab4:	bfba      	itte	lt
   12ab6:	461c      	movlt	r4, r3
   12ab8:	2501      	movlt	r5, #1
   12aba:	2500      	movge	r5, #0
   12abc:	f7ff fcfe 	bl	124bc <_Balloc>
   12ac0:	4602      	mov	r2, r0
   12ac2:	b918      	cbnz	r0, 12acc <__mdiff+0x60>
   12ac4:	4b31      	ldr	r3, [pc, #196]	@ (12b8c <__mdiff+0x120>)
   12ac6:	f240 2145 	movw	r1, #581	@ 0x245
   12aca:	e7e3      	b.n	12a94 <__mdiff+0x28>
   12acc:	f8d9 7010 	ldr.w	r7, [r9, #16]
   12ad0:	6926      	ldr	r6, [r4, #16]
   12ad2:	60c5      	str	r5, [r0, #12]
   12ad4:	f109 0310 	add.w	r3, r9, #16
   12ad8:	f109 0514 	add.w	r5, r9, #20
   12adc:	f104 0e14 	add.w	lr, r4, #20
   12ae0:	f100 0b14 	add.w	fp, r0, #20
   12ae4:	eb05 0887 	add.w	r8, r5, r7, lsl #2
   12ae8:	eb0e 0686 	add.w	r6, lr, r6, lsl #2
   12aec:	9301      	str	r3, [sp, #4]
   12aee:	46d9      	mov	r9, fp
   12af0:	f04f 0c00 	mov.w	ip, #0
   12af4:	9b01      	ldr	r3, [sp, #4]
   12af6:	f85e 0b04 	ldr.w	r0, [lr], #4
   12afa:	f853 af04 	ldr.w	sl, [r3, #4]!
   12afe:	9301      	str	r3, [sp, #4]
   12b00:	fa1f f38a 	uxth.w	r3, sl
   12b04:	4619      	mov	r1, r3
   12b06:	b283      	uxth	r3, r0
   12b08:	1acb      	subs	r3, r1, r3
   12b0a:	0c00      	lsrs	r0, r0, #16
   12b0c:	4463      	add	r3, ip
   12b0e:	ebc0 401a 	rsb	r0, r0, sl, lsr #16
   12b12:	eb00 4023 	add.w	r0, r0, r3, asr #16
   12b16:	b29b      	uxth	r3, r3
   12b18:	ea43 4300 	orr.w	r3, r3, r0, lsl #16
   12b1c:	4576      	cmp	r6, lr
   12b1e:	f849 3b04 	str.w	r3, [r9], #4
   12b22:	ea4f 4c20 	mov.w	ip, r0, asr #16
   12b26:	d8e5      	bhi.n	12af4 <__mdiff+0x88>
   12b28:	1b33      	subs	r3, r6, r4
   12b2a:	3b15      	subs	r3, #21
   12b2c:	f023 0303 	bic.w	r3, r3, #3
   12b30:	3415      	adds	r4, #21
   12b32:	3304      	adds	r3, #4
   12b34:	42a6      	cmp	r6, r4
   12b36:	bf38      	it	cc
   12b38:	2304      	movcc	r3, #4
   12b3a:	441d      	add	r5, r3
   12b3c:	445b      	add	r3, fp
   12b3e:	461e      	mov	r6, r3
   12b40:	462c      	mov	r4, r5
   12b42:	4544      	cmp	r4, r8
   12b44:	d30e      	bcc.n	12b64 <__mdiff+0xf8>
   12b46:	f108 0103 	add.w	r1, r8, #3
   12b4a:	1b49      	subs	r1, r1, r5
   12b4c:	f021 0103 	bic.w	r1, r1, #3
   12b50:	3d03      	subs	r5, #3
   12b52:	45a8      	cmp	r8, r5
   12b54:	bf38      	it	cc
   12b56:	2100      	movcc	r1, #0
   12b58:	440b      	add	r3, r1
   12b5a:	f853 1d04 	ldr.w	r1, [r3, #-4]!
   12b5e:	b191      	cbz	r1, 12b86 <__mdiff+0x11a>
   12b60:	6117      	str	r7, [r2, #16]
   12b62:	e79d      	b.n	12aa0 <__mdiff+0x34>
   12b64:	f854 1b04 	ldr.w	r1, [r4], #4
   12b68:	46e6      	mov	lr, ip
   12b6a:	0c08      	lsrs	r0, r1, #16
   12b6c:	fa1c fc81 	uxtah	ip, ip, r1
   12b70:	4471      	add	r1, lr
   12b72:	eb00 402c 	add.w	r0, r0, ip, asr #16
   12b76:	b289      	uxth	r1, r1
   12b78:	ea41 4100 	orr.w	r1, r1, r0, lsl #16
   12b7c:	f846 1b04 	str.w	r1, [r6], #4
   12b80:	ea4f 4c20 	mov.w	ip, r0, asr #16
   12b84:	e7dd      	b.n	12b42 <__mdiff+0xd6>
   12b86:	3f01      	subs	r7, #1
   12b88:	e7e7      	b.n	12b5a <__mdiff+0xee>
   12b8a:	bf00      	nop
   12b8c:	0001421d 	andeq	r4, r1, sp, lsl r2
   12b90:	000141c3 	andeq	r4, r1, r3, asr #3

Disassembly of section .text.__ulp:

00012b94 <__ulp>:
   12b94:	b082      	sub	sp, #8
   12b96:	ed8d 0b00 	vstr	d0, [sp]
   12b9a:	9a01      	ldr	r2, [sp, #4]
   12b9c:	4b0f      	ldr	r3, [pc, #60]	@ (12bdc <__ulp+0x48>)
   12b9e:	4013      	ands	r3, r2
   12ba0:	f1a3 7350 	sub.w	r3, r3, #54525952	@ 0x3400000
   12ba4:	2b00      	cmp	r3, #0
   12ba6:	dc08      	bgt.n	12bba <__ulp+0x26>
   12ba8:	425b      	negs	r3, r3
   12baa:	f1b3 7fa0 	cmp.w	r3, #20971520	@ 0x1400000
   12bae:	ea4f 5223 	mov.w	r2, r3, asr #20
   12bb2:	da04      	bge.n	12bbe <__ulp+0x2a>
   12bb4:	f44f 2300 	mov.w	r3, #524288	@ 0x80000
   12bb8:	4113      	asrs	r3, r2
   12bba:	2200      	movs	r2, #0
   12bbc:	e008      	b.n	12bd0 <__ulp+0x3c>
   12bbe:	f1a2 0314 	sub.w	r3, r2, #20
   12bc2:	2b1e      	cmp	r3, #30
   12bc4:	bfda      	itte	le
   12bc6:	f04f 4200 	movle.w	r2, #2147483648	@ 0x80000000
   12bca:	40da      	lsrle	r2, r3
   12bcc:	2201      	movgt	r2, #1
   12bce:	2300      	movs	r3, #0
   12bd0:	4619      	mov	r1, r3
   12bd2:	4610      	mov	r0, r2
   12bd4:	ec41 0b10 	vmov	d0, r0, r1
   12bd8:	b002      	add	sp, #8
   12bda:	4770      	bx	lr
   12bdc:	7ff00000 	svcvc	0x00f00000	@ IMB

Disassembly of section .text.__b2d:

00012be0 <__b2d>:
   12be0:	e92d 41f0 	stmdb	sp!, {r4, r5, r6, r7, r8, lr}
   12be4:	6906      	ldr	r6, [r0, #16]
   12be6:	f100 0814 	add.w	r8, r0, #20
   12bea:	eb08 0686 	add.w	r6, r8, r6, lsl #2
   12bee:	1f37      	subs	r7, r6, #4
   12bf0:	f856 2c04 	ldr.w	r2, [r6, #-4]
   12bf4:	4610      	mov	r0, r2
   12bf6:	f7ff fd53 	bl	126a0 <__hi0bits>
   12bfa:	f1c0 0320 	rsb	r3, r0, #32
   12bfe:	280a      	cmp	r0, #10
   12c00:	600b      	str	r3, [r1, #0]
   12c02:	491b      	ldr	r1, [pc, #108]	@ (12c70 <__b2d+0x90>)
   12c04:	dc15      	bgt.n	12c32 <__b2d+0x52>
   12c06:	f1c0 0c0b 	rsb	ip, r0, #11
   12c0a:	fa22 f30c 	lsr.w	r3, r2, ip
   12c0e:	45b8      	cmp	r8, r7
   12c10:	ea43 0501 	orr.w	r5, r3, r1
   12c14:	bf34      	ite	cc
   12c16:	f856 3c08 	ldrcc.w	r3, [r6, #-8]
   12c1a:	2300      	movcs	r3, #0
   12c1c:	3015      	adds	r0, #21
   12c1e:	fa02 f000 	lsl.w	r0, r2, r0
   12c22:	fa23 f30c 	lsr.w	r3, r3, ip
   12c26:	4303      	orrs	r3, r0
   12c28:	461c      	mov	r4, r3
   12c2a:	ec45 4b10 	vmov	d0, r4, r5
   12c2e:	e8bd 81f0 	ldmia.w	sp!, {r4, r5, r6, r7, r8, pc}
   12c32:	45b8      	cmp	r8, r7
   12c34:	bf3a      	itte	cc
   12c36:	f856 3c08 	ldrcc.w	r3, [r6, #-8]
   12c3a:	f1a6 0708 	subcc.w	r7, r6, #8
   12c3e:	2300      	movcs	r3, #0
   12c40:	380b      	subs	r0, #11
   12c42:	d012      	beq.n	12c6a <__b2d+0x8a>
   12c44:	f1c0 0120 	rsb	r1, r0, #32
   12c48:	fa23 f401 	lsr.w	r4, r3, r1
   12c4c:	4082      	lsls	r2, r0
   12c4e:	4322      	orrs	r2, r4
   12c50:	4547      	cmp	r7, r8
   12c52:	f042 557f 	orr.w	r5, r2, #1069547520	@ 0x3fc00000
   12c56:	bf8c      	ite	hi
   12c58:	f857 2c04 	ldrhi.w	r2, [r7, #-4]
   12c5c:	2200      	movls	r2, #0
   12c5e:	4083      	lsls	r3, r0
   12c60:	40ca      	lsrs	r2, r1
   12c62:	f445 1540 	orr.w	r5, r5, #3145728	@ 0x300000
   12c66:	4313      	orrs	r3, r2
   12c68:	e7de      	b.n	12c28 <__b2d+0x48>
   12c6a:	ea42 0501 	orr.w	r5, r2, r1
   12c6e:	e7db      	b.n	12c28 <__b2d+0x48>
   12c70:	3ff00000 	svccc	0x00f00000	@ IMB

Disassembly of section .text.__d2b:

00012c74 <__d2b>:
   12c74:	e92d 43f7 	stmdb	sp!, {r0, r1, r2, r4, r5, r6, r7, r8, r9, lr}
   12c78:	460f      	mov	r7, r1
   12c7a:	2101      	movs	r1, #1
   12c7c:	ec59 8b10 	vmov	r8, r9, d0
   12c80:	4616      	mov	r6, r2
   12c82:	f7ff fc1b 	bl	124bc <_Balloc>
   12c86:	4604      	mov	r4, r0
   12c88:	b930      	cbnz	r0, 12c98 <__d2b+0x24>
   12c8a:	4602      	mov	r2, r0
   12c8c:	4b23      	ldr	r3, [pc, #140]	@ (12d1c <__d2b+0xa8>)
   12c8e:	4824      	ldr	r0, [pc, #144]	@ (12d20 <__d2b+0xac>)
   12c90:	f240 310f 	movw	r1, #783	@ 0x30f
   12c94:	f7ff fbc4 	bl	12420 <__assert_func>
   12c98:	f3c9 550a 	ubfx	r5, r9, #20, #11
   12c9c:	f3c9 0313 	ubfx	r3, r9, #0, #20
   12ca0:	b10d      	cbz	r5, 12ca6 <__d2b+0x32>
   12ca2:	f443 1380 	orr.w	r3, r3, #1048576	@ 0x100000
   12ca6:	9301      	str	r3, [sp, #4]
   12ca8:	f1b8 0300 	subs.w	r3, r8, #0
   12cac:	d023      	beq.n	12cf6 <__d2b+0x82>
   12cae:	4668      	mov	r0, sp
   12cb0:	9300      	str	r3, [sp, #0]
   12cb2:	f7ff fd14 	bl	126de <__lo0bits>
   12cb6:	e9dd 1200 	ldrd	r1, r2, [sp]
   12cba:	b1d0      	cbz	r0, 12cf2 <__d2b+0x7e>
   12cbc:	f1c0 0320 	rsb	r3, r0, #32
   12cc0:	fa02 f303 	lsl.w	r3, r2, r3
   12cc4:	430b      	orrs	r3, r1
   12cc6:	40c2      	lsrs	r2, r0
   12cc8:	6163      	str	r3, [r4, #20]
   12cca:	9201      	str	r2, [sp, #4]
   12ccc:	9b01      	ldr	r3, [sp, #4]
   12cce:	61a3      	str	r3, [r4, #24]
   12cd0:	2b00      	cmp	r3, #0
   12cd2:	bf0c      	ite	eq
   12cd4:	2201      	moveq	r2, #1
   12cd6:	2202      	movne	r2, #2
   12cd8:	6122      	str	r2, [r4, #16]
   12cda:	b1a5      	cbz	r5, 12d06 <__d2b+0x92>
   12cdc:	f2a5 4533 	subw	r5, r5, #1075	@ 0x433
   12ce0:	4405      	add	r5, r0
   12ce2:	603d      	str	r5, [r7, #0]
   12ce4:	f1c0 0035 	rsb	r0, r0, #53	@ 0x35
   12ce8:	6030      	str	r0, [r6, #0]
   12cea:	4620      	mov	r0, r4
   12cec:	b003      	add	sp, #12
   12cee:	e8bd 83f0 	ldmia.w	sp!, {r4, r5, r6, r7, r8, r9, pc}
   12cf2:	6161      	str	r1, [r4, #20]
   12cf4:	e7ea      	b.n	12ccc <__d2b+0x58>
   12cf6:	a801      	add	r0, sp, #4
   12cf8:	f7ff fcf1 	bl	126de <__lo0bits>
   12cfc:	9b01      	ldr	r3, [sp, #4]
   12cfe:	6163      	str	r3, [r4, #20]
   12d00:	3020      	adds	r0, #32
   12d02:	2201      	movs	r2, #1
   12d04:	e7e8      	b.n	12cd8 <__d2b+0x64>
   12d06:	eb04 0382 	add.w	r3, r4, r2, lsl #2
   12d0a:	f2a0 4032 	subw	r0, r0, #1074	@ 0x432
   12d0e:	6038      	str	r0, [r7, #0]
   12d10:	6918      	ldr	r0, [r3, #16]
   12d12:	f7ff fcc5 	bl	126a0 <__hi0bits>
   12d16:	ebc0 1042 	rsb	r0, r0, r2, lsl #5
   12d1a:	e7e5      	b.n	12ce8 <__d2b+0x74>
   12d1c:	0001421d 	andeq	r4, r1, sp, lsl r2
   12d20:	000141c3 	andeq	r4, r1, r3, asr #3

Disassembly of section .text.__ratio:

00012d24 <__ratio>:
   12d24:	e92d 4ff0 	stmdb	sp!, {r4, r5, r6, r7, r8, r9, sl, fp, lr}
   12d28:	b085      	sub	sp, #20
   12d2a:	e9cd 1000 	strd	r1, r0, [sp]
   12d2e:	a902      	add	r1, sp, #8
   12d30:	f7ff ff56 	bl	12be0 <__b2d>
   12d34:	9800      	ldr	r0, [sp, #0]
   12d36:	a903      	add	r1, sp, #12
   12d38:	ec55 4b10 	vmov	r4, r5, d0
   12d3c:	f7ff ff50 	bl	12be0 <__b2d>
   12d40:	9b01      	ldr	r3, [sp, #4]
   12d42:	6919      	ldr	r1, [r3, #16]
   12d44:	9b00      	ldr	r3, [sp, #0]
   12d46:	691b      	ldr	r3, [r3, #16]
   12d48:	1ac9      	subs	r1, r1, r3
   12d4a:	e9dd 3202 	ldrd	r3, r2, [sp, #8]
   12d4e:	1a9b      	subs	r3, r3, r2
   12d50:	ec5b ab10 	vmov	sl, fp, d0
   12d54:	eb03 1341 	add.w	r3, r3, r1, lsl #5
   12d58:	2b00      	cmp	r3, #0
   12d5a:	bfce      	itee	gt
   12d5c:	462a      	movgt	r2, r5
   12d5e:	ebc3 3303 	rsble	r3, r3, r3, lsl #12
   12d62:	465a      	movle	r2, fp
   12d64:	462f      	mov	r7, r5
   12d66:	46d9      	mov	r9, fp
   12d68:	bfcc      	ite	gt
   12d6a:	eb02 5703 	addgt.w	r7, r2, r3, lsl #20
   12d6e:	eb02 5903 	addle.w	r9, r2, r3, lsl #20
   12d72:	464b      	mov	r3, r9
   12d74:	4652      	mov	r2, sl
   12d76:	4620      	mov	r0, r4
   12d78:	4639      	mov	r1, r7
   12d7a:	f7fd fe3f 	bl	109fc <__aeabi_ddiv>
   12d7e:	ec41 0b10 	vmov	d0, r0, r1
   12d82:	b005      	add	sp, #20
   12d84:	e8bd 8ff0 	ldmia.w	sp!, {r4, r5, r6, r7, r8, r9, sl, fp, pc}

Disassembly of section .text._mprec_log10:

00012d88 <_mprec_log10>:
   12d88:	2817      	cmp	r0, #23
   12d8a:	b5d0      	push	{r4, r6, r7, lr}
   12d8c:	4604      	mov	r4, r0
   12d8e:	dc07      	bgt.n	12da0 <_mprec_log10+0x18>
   12d90:	4b09      	ldr	r3, [pc, #36]	@ (12db8 <_mprec_log10+0x30>)
   12d92:	eb03 03c0 	add.w	r3, r3, r0, lsl #3
   12d96:	e9d3 0100 	ldrd	r0, r1, [r3]
   12d9a:	ec41 0b10 	vmov	d0, r0, r1
   12d9e:	bdd0      	pop	{r4, r6, r7, pc}
   12da0:	4906      	ldr	r1, [pc, #24]	@ (12dbc <_mprec_log10+0x34>)
   12da2:	4f07      	ldr	r7, [pc, #28]	@ (12dc0 <_mprec_log10+0x38>)
   12da4:	2000      	movs	r0, #0
   12da6:	2600      	movs	r6, #0
   12da8:	4632      	mov	r2, r6
   12daa:	463b      	mov	r3, r7
   12dac:	f7fd fcfc 	bl	107a8 <__aeabi_dmul>
   12db0:	3c01      	subs	r4, #1
   12db2:	d1f9      	bne.n	12da8 <_mprec_log10+0x20>
   12db4:	e7f1      	b.n	12d9a <_mprec_log10+0x12>
   12db6:	bf00      	nop
   12db8:	00014290 	muleq	r1, r0, r2
   12dbc:	3ff00000 	svccc	0x00f00000	@ IMB
   12dc0:	40240000 	eormi	r0, r4, r0

Disassembly of section .text.__copybits:

00012dc4 <__copybits>:
   12dc4:	3901      	subs	r1, #1
   12dc6:	b570      	push	{r4, r5, r6, lr}
   12dc8:	1149      	asrs	r1, r1, #5
   12dca:	6914      	ldr	r4, [r2, #16]
   12dcc:	3101      	adds	r1, #1
   12dce:	f102 0314 	add.w	r3, r2, #20
   12dd2:	eb00 0181 	add.w	r1, r0, r1, lsl #2
   12dd6:	eb03 0484 	add.w	r4, r3, r4, lsl #2
   12dda:	1f05      	subs	r5, r0, #4
   12ddc:	42a3      	cmp	r3, r4
   12dde:	d30c      	bcc.n	12dfa <__copybits+0x36>
   12de0:	1aa3      	subs	r3, r4, r2
   12de2:	3b11      	subs	r3, #17
   12de4:	f023 0303 	bic.w	r3, r3, #3
   12de8:	3211      	adds	r2, #17
   12dea:	42a2      	cmp	r2, r4
   12dec:	bf88      	it	hi
   12dee:	2300      	movhi	r3, #0
   12df0:	4418      	add	r0, r3
   12df2:	2300      	movs	r3, #0
   12df4:	4288      	cmp	r0, r1
   12df6:	d305      	bcc.n	12e04 <__copybits+0x40>
   12df8:	bd70      	pop	{r4, r5, r6, pc}
   12dfa:	f853 6b04 	ldr.w	r6, [r3], #4
   12dfe:	f845 6f04 	str.w	r6, [r5, #4]!
   12e02:	e7eb      	b.n	12ddc <__copybits+0x18>
   12e04:	f840 3b04 	str.w	r3, [r0], #4
   12e08:	e7f4      	b.n	12df4 <__copybits+0x30>

Disassembly of section .text.__any_on:

00012e0a <__any_on>:
   12e0a:	f100 0214 	add.w	r2, r0, #20
   12e0e:	6900      	ldr	r0, [r0, #16]
   12e10:	114b      	asrs	r3, r1, #5
   12e12:	4298      	cmp	r0, r3
   12e14:	b510      	push	{r4, lr}
   12e16:	db11      	blt.n	12e3c <__any_on+0x32>
   12e18:	dd0a      	ble.n	12e30 <__any_on+0x26>
   12e1a:	f011 011f 	ands.w	r1, r1, #31
   12e1e:	d007      	beq.n	12e30 <__any_on+0x26>
   12e20:	f852 4023 	ldr.w	r4, [r2, r3, lsl #2]
   12e24:	fa24 f001 	lsr.w	r0, r4, r1
   12e28:	fa00 f101 	lsl.w	r1, r0, r1
   12e2c:	428c      	cmp	r4, r1
   12e2e:	d10b      	bne.n	12e48 <__any_on+0x3e>
   12e30:	eb02 0383 	add.w	r3, r2, r3, lsl #2
   12e34:	4293      	cmp	r3, r2
   12e36:	d803      	bhi.n	12e40 <__any_on+0x36>
   12e38:	2000      	movs	r0, #0
   12e3a:	bd10      	pop	{r4, pc}
   12e3c:	4603      	mov	r3, r0
   12e3e:	e7f7      	b.n	12e30 <__any_on+0x26>
   12e40:	f853 1d04 	ldr.w	r1, [r3, #-4]!
   12e44:	2900      	cmp	r1, #0
   12e46:	d0f5      	beq.n	12e34 <__any_on+0x2a>
   12e48:	2001      	movs	r0, #1
   12e4a:	e7f6      	b.n	12e3a <__any_on+0x30>

Disassembly of section .text._calloc_r:

00012e4c <_calloc_r>:
   12e4c:	b570      	push	{r4, r5, r6, lr}
   12e4e:	fba1 5402 	umull	r5, r4, r1, r2
   12e52:	b934      	cbnz	r4, 12e62 <_calloc_r+0x16>
   12e54:	4629      	mov	r1, r5
   12e56:	f7ff fa63 	bl	12320 <_malloc_r>
   12e5a:	4606      	mov	r6, r0
   12e5c:	b928      	cbnz	r0, 12e6a <_calloc_r+0x1e>
   12e5e:	4630      	mov	r0, r6
   12e60:	bd70      	pop	{r4, r5, r6, pc}
   12e62:	220c      	movs	r2, #12
   12e64:	6002      	str	r2, [r0, #0]
   12e66:	2600      	movs	r6, #0
   12e68:	e7f9      	b.n	12e5e <_calloc_r+0x12>
   12e6a:	462a      	mov	r2, r5
   12e6c:	4621      	mov	r1, r4
   12e6e:	f000 f811 	bl	12e94 <memset>
   12e72:	e7f4      	b.n	12e5e <_calloc_r+0x12>

Disassembly of section .text._sbrk_r:

00012e74 <_sbrk_r>:
   12e74:	b538      	push	{r3, r4, r5, lr}
   12e76:	4d06      	ldr	r5, [pc, #24]	@ (12e90 <_sbrk_r+0x1c>)
   12e78:	2300      	movs	r3, #0
   12e7a:	4604      	mov	r4, r0
   12e7c:	4608      	mov	r0, r1
   12e7e:	602b      	str	r3, [r5, #0]
   12e80:	f001 f8ce 	bl	14020 <_sbrk>
   12e84:	1c43      	adds	r3, r0, #1
   12e86:	d102      	bne.n	12e8e <_sbrk_r+0x1a>
   12e88:	682b      	ldr	r3, [r5, #0]
   12e8a:	b103      	cbz	r3, 12e8e <_sbrk_r+0x1a>
   12e8c:	6023      	str	r3, [r4, #0]
   12e8e:	bd38      	pop	{r3, r4, r5, pc}
   12e90:	00014ba4 	andeq	r4, r1, r4, lsr #23

Disassembly of section .text.memset:

00012e94 <memset>:
   12e94:	4402      	add	r2, r0
   12e96:	4603      	mov	r3, r0
   12e98:	4293      	cmp	r3, r2
   12e9a:	d100      	bne.n	12e9e <memset+0xa>
   12e9c:	4770      	bx	lr
   12e9e:	f803 1b01 	strb.w	r1, [r3], #1
   12ea2:	e7f9      	b.n	12e98 <memset+0x4>

Disassembly of section .text._free_r:

00012ea4 <_free_r>:
   12ea4:	b538      	push	{r3, r4, r5, lr}
   12ea6:	4605      	mov	r5, r0
   12ea8:	2900      	cmp	r1, #0
   12eaa:	d041      	beq.n	12f30 <_free_r+0x8c>
   12eac:	f851 3c04 	ldr.w	r3, [r1, #-4]
   12eb0:	1f0c      	subs	r4, r1, #4
   12eb2:	2b00      	cmp	r3, #0
   12eb4:	bfb8      	it	lt
   12eb6:	18e4      	addlt	r4, r4, r3
   12eb8:	f7ff faf4 	bl	124a4 <__malloc_lock>
   12ebc:	4a1d      	ldr	r2, [pc, #116]	@ (12f34 <_free_r+0x90>)
   12ebe:	6813      	ldr	r3, [r2, #0]
   12ec0:	b933      	cbnz	r3, 12ed0 <_free_r+0x2c>
   12ec2:	6063      	str	r3, [r4, #4]
   12ec4:	6014      	str	r4, [r2, #0]
   12ec6:	4628      	mov	r0, r5
   12ec8:	e8bd 4038 	ldmia.w	sp!, {r3, r4, r5, lr}
   12ecc:	f7ff baf0 	b.w	124b0 <__malloc_unlock>
   12ed0:	42a3      	cmp	r3, r4
   12ed2:	d908      	bls.n	12ee6 <_free_r+0x42>
   12ed4:	6820      	ldr	r0, [r4, #0]
   12ed6:	1821      	adds	r1, r4, r0
   12ed8:	428b      	cmp	r3, r1
   12eda:	bf01      	itttt	eq
   12edc:	6819      	ldreq	r1, [r3, #0]
   12ede:	685b      	ldreq	r3, [r3, #4]
   12ee0:	1809      	addeq	r1, r1, r0
   12ee2:	6021      	streq	r1, [r4, #0]
   12ee4:	e7ed      	b.n	12ec2 <_free_r+0x1e>
   12ee6:	461a      	mov	r2, r3
   12ee8:	685b      	ldr	r3, [r3, #4]
   12eea:	b10b      	cbz	r3, 12ef0 <_free_r+0x4c>
   12eec:	42a3      	cmp	r3, r4
   12eee:	d9fa      	bls.n	12ee6 <_free_r+0x42>
   12ef0:	6811      	ldr	r1, [r2, #0]
   12ef2:	1850      	adds	r0, r2, r1
   12ef4:	42a0      	cmp	r0, r4
   12ef6:	d10b      	bne.n	12f10 <_free_r+0x6c>
   12ef8:	6820      	ldr	r0, [r4, #0]
   12efa:	4401      	add	r1, r0
   12efc:	1850      	adds	r0, r2, r1
   12efe:	4283      	cmp	r3, r0
   12f00:	6011      	str	r1, [r2, #0]
   12f02:	d1e0      	bne.n	12ec6 <_free_r+0x22>
   12f04:	6818      	ldr	r0, [r3, #0]
   12f06:	685b      	ldr	r3, [r3, #4]
   12f08:	6053      	str	r3, [r2, #4]
   12f0a:	4408      	add	r0, r1
   12f0c:	6010      	str	r0, [r2, #0]
   12f0e:	e7da      	b.n	12ec6 <_free_r+0x22>
   12f10:	d902      	bls.n	12f18 <_free_r+0x74>
   12f12:	230c      	movs	r3, #12
   12f14:	602b      	str	r3, [r5, #0]
   12f16:	e7d6      	b.n	12ec6 <_free_r+0x22>
   12f18:	6820      	ldr	r0, [r4, #0]
   12f1a:	1821      	adds	r1, r4, r0
   12f1c:	428b      	cmp	r3, r1
   12f1e:	bf04      	itt	eq
   12f20:	6819      	ldreq	r1, [r3, #0]
   12f22:	685b      	ldreq	r3, [r3, #4]
   12f24:	6063      	str	r3, [r4, #4]
   12f26:	bf04      	itt	eq
   12f28:	1809      	addeq	r1, r1, r0
   12f2a:	6021      	streq	r1, [r4, #0]
   12f2c:	6054      	str	r4, [r2, #4]
   12f2e:	e7ca      	b.n	12ec6 <_free_r+0x22>
   12f30:	bd38      	pop	{r3, r4, r5, pc}
   12f32:	bf00      	nop
   12f34:	00014b94 	muleq	r1, r4, fp

Disassembly of section .text.__retarget_lock_init:

00012f38 <__retarget_lock_init>:
   12f38:	4770      	bx	lr

Disassembly of section .text.__retarget_lock_init_recursive:

00012f3a <__retarget_lock_init_recursive>:
   12f3a:	4770      	bx	lr

Disassembly of section .text.__retarget_lock_close:

00012f3c <__retarget_lock_close>:
   12f3c:	4770      	bx	lr

Disassembly of section .text.__retarget_lock_close_recursive:

00012f3e <__retarget_lock_close_recursive>:
   12f3e:	4770      	bx	lr

Disassembly of section .text.__retarget_lock_acquire:

00012f40 <__retarget_lock_acquire>:
   12f40:	4770      	bx	lr

Disassembly of section .text.__retarget_lock_acquire_recursive:

00012f42 <__retarget_lock_acquire_recursive>:
   12f42:	4770      	bx	lr

Disassembly of section .text.__retarget_lock_try_acquire:

00012f44 <__retarget_lock_try_acquire>:
   12f44:	2001      	movs	r0, #1
   12f46:	4770      	bx	lr

Disassembly of section .text.__retarget_lock_try_acquire_recursive:

00012f48 <__retarget_lock_try_acquire_recursive>:
   12f48:	2001      	movs	r0, #1
   12f4a:	4770      	bx	lr

Disassembly of section .text.__retarget_lock_release:

00012f4c <__retarget_lock_release>:
   12f4c:	4770      	bx	lr

Disassembly of section .text.__retarget_lock_release_recursive:

00012f4e <__retarget_lock_release_recursive>:
   12f4e:	4770      	bx	lr

Disassembly of section .text._setlocale_r:

00012f50 <_setlocale_r>:
   12f50:	b510      	push	{r4, lr}
   12f52:	4614      	mov	r4, r2
   12f54:	b122      	cbz	r2, 12f60 <_setlocale_r+0x10>
   12f56:	490a      	ldr	r1, [pc, #40]	@ (12f80 <_setlocale_r+0x30>)
   12f58:	4610      	mov	r0, r2
   12f5a:	f7fd f8c1 	bl	100e0 <strcmp>
   12f5e:	b908      	cbnz	r0, 12f64 <_setlocale_r+0x14>
   12f60:	4808      	ldr	r0, [pc, #32]	@ (12f84 <_setlocale_r+0x34>)
   12f62:	bd10      	pop	{r4, pc}
   12f64:	4907      	ldr	r1, [pc, #28]	@ (12f84 <_setlocale_r+0x34>)
   12f66:	4620      	mov	r0, r4
   12f68:	f7fd f8ba 	bl	100e0 <strcmp>
   12f6c:	2800      	cmp	r0, #0
   12f6e:	d0f7      	beq.n	12f60 <_setlocale_r+0x10>
   12f70:	4905      	ldr	r1, [pc, #20]	@ (12f88 <_setlocale_r+0x38>)
   12f72:	4620      	mov	r0, r4
   12f74:	f7fd f8b4 	bl	100e0 <strcmp>
   12f78:	2800      	cmp	r0, #0
   12f7a:	d0f1      	beq.n	12f60 <_setlocale_r+0x10>
   12f7c:	2000      	movs	r0, #0
   12f7e:	e7f0      	b.n	12f62 <_setlocale_r+0x12>
   12f80:	0001435a 	andeq	r4, r1, sl, asr r3
   12f84:	00014358 	andeq	r4, r1, r8, asr r3
   12f88:	00014359 	andeq	r4, r1, r9, asr r3

Disassembly of section .text.__locale_mb_cur_max:

00012f8c <__locale_mb_cur_max>:
   12f8c:	4b01      	ldr	r3, [pc, #4]	@ (12f94 <__locale_mb_cur_max+0x8>)
   12f8e:	f893 0128 	ldrb.w	r0, [r3, #296]	@ 0x128
   12f92:	4770      	bx	lr
   12f94:	000144c4 	andeq	r4, r1, r4, asr #9

Disassembly of section .text.setlocale:

00012f98 <setlocale>:
   12f98:	4b02      	ldr	r3, [pc, #8]	@ (12fa4 <setlocale+0xc>)
   12f9a:	460a      	mov	r2, r1
   12f9c:	4601      	mov	r1, r0
   12f9e:	6818      	ldr	r0, [r3, #0]
   12fa0:	f7ff bfd6 	b.w	12f50 <_setlocale_r>
   12fa4:	00014630 	andeq	r4, r1, r0, lsr r6

Disassembly of section .text.__sfputc_r:

00012fa8 <__sfputc_r>:
   12fa8:	6893      	ldr	r3, [r2, #8]
   12faa:	3b01      	subs	r3, #1
   12fac:	2b00      	cmp	r3, #0
   12fae:	b410      	push	{r4}
   12fb0:	6093      	str	r3, [r2, #8]
   12fb2:	da08      	bge.n	12fc6 <__sfputc_r+0x1e>
   12fb4:	6994      	ldr	r4, [r2, #24]
   12fb6:	42a3      	cmp	r3, r4
   12fb8:	db01      	blt.n	12fbe <__sfputc_r+0x16>
   12fba:	290a      	cmp	r1, #10
   12fbc:	d103      	bne.n	12fc6 <__sfputc_r+0x1e>
   12fbe:	f85d 4b04 	ldr.w	r4, [sp], #4
   12fc2:	f000 b949 	b.w	13258 <__swbuf_r>
   12fc6:	6813      	ldr	r3, [r2, #0]
   12fc8:	1c58      	adds	r0, r3, #1
   12fca:	6010      	str	r0, [r2, #0]
   12fcc:	7019      	strb	r1, [r3, #0]
   12fce:	4608      	mov	r0, r1
   12fd0:	f85d 4b04 	ldr.w	r4, [sp], #4
   12fd4:	4770      	bx	lr

Disassembly of section .text.__sfputs_r:

00012fd6 <__sfputs_r>:
   12fd6:	b5f8      	push	{r3, r4, r5, r6, r7, lr}
   12fd8:	4606      	mov	r6, r0
   12fda:	460f      	mov	r7, r1
   12fdc:	4614      	mov	r4, r2
   12fde:	18d5      	adds	r5, r2, r3
   12fe0:	42ac      	cmp	r4, r5
   12fe2:	d101      	bne.n	12fe8 <__sfputs_r+0x12>
   12fe4:	2000      	movs	r0, #0
   12fe6:	e007      	b.n	12ff8 <__sfputs_r+0x22>
   12fe8:	f814 1b01 	ldrb.w	r1, [r4], #1
   12fec:	463a      	mov	r2, r7
   12fee:	4630      	mov	r0, r6
   12ff0:	f7ff ffda 	bl	12fa8 <__sfputc_r>
   12ff4:	1c43      	adds	r3, r0, #1
   12ff6:	d1f3      	bne.n	12fe0 <__sfputs_r+0xa>
   12ff8:	bdf8      	pop	{r3, r4, r5, r6, r7, pc}

Disassembly of section .text.__sprint_r:

00012ffa <__sprint_r>:
   12ffa:	6893      	ldr	r3, [r2, #8]
   12ffc:	b510      	push	{r4, lr}
   12ffe:	4614      	mov	r4, r2
   13000:	b133      	cbz	r3, 13010 <__sprint_r+0x16>
   13002:	f000 fcab 	bl	1395c <__sfvwrite_r>
   13006:	2300      	movs	r3, #0
   13008:	60a3      	str	r3, [r4, #8]
   1300a:	2300      	movs	r3, #0
   1300c:	6063      	str	r3, [r4, #4]
   1300e:	bd10      	pop	{r4, pc}
   13010:	4618      	mov	r0, r3
   13012:	e7fa      	b.n	1300a <__sprint_r+0x10>

Disassembly of section .text._vfprintf_r:

00013014 <_vfiprintf_r>:
   13014:	e92d 4ff0 	stmdb	sp!, {r4, r5, r6, r7, r8, r9, sl, fp, lr}
   13018:	460d      	mov	r5, r1
   1301a:	b09d      	sub	sp, #116	@ 0x74
   1301c:	4614      	mov	r4, r2
   1301e:	4698      	mov	r8, r3
   13020:	4606      	mov	r6, r0
   13022:	b118      	cbz	r0, 1302c <_vfiprintf_r+0x18>
   13024:	6a03      	ldr	r3, [r0, #32]
   13026:	b90b      	cbnz	r3, 1302c <_vfiprintf_r+0x18>
   13028:	f000 fbfa 	bl	13820 <__sinit>
   1302c:	6e6b      	ldr	r3, [r5, #100]	@ 0x64
   1302e:	07d9      	lsls	r1, r3, #31
   13030:	d405      	bmi.n	1303e <_vfiprintf_r+0x2a>
   13032:	89ab      	ldrh	r3, [r5, #12]
   13034:	059a      	lsls	r2, r3, #22
   13036:	d402      	bmi.n	1303e <_vfiprintf_r+0x2a>
   13038:	6da8      	ldr	r0, [r5, #88]	@ 0x58
   1303a:	f7ff ff82 	bl	12f42 <__retarget_lock_acquire_recursive>
   1303e:	89ab      	ldrh	r3, [r5, #12]
   13040:	071b      	lsls	r3, r3, #28
   13042:	d501      	bpl.n	13048 <_vfiprintf_r+0x34>
   13044:	692b      	ldr	r3, [r5, #16]
   13046:	b99b      	cbnz	r3, 13070 <_vfiprintf_r+0x5c>
   13048:	4629      	mov	r1, r5
   1304a:	4630      	mov	r0, r6
   1304c:	f000 f94a 	bl	132e4 <__swsetup_r>
   13050:	b170      	cbz	r0, 13070 <_vfiprintf_r+0x5c>
   13052:	6e6b      	ldr	r3, [r5, #100]	@ 0x64
   13054:	07dc      	lsls	r4, r3, #31
   13056:	d504      	bpl.n	13062 <_vfiprintf_r+0x4e>
   13058:	f04f 30ff 	mov.w	r0, #4294967295	@ 0xffffffff
   1305c:	b01d      	add	sp, #116	@ 0x74
   1305e:	e8bd 8ff0 	ldmia.w	sp!, {r4, r5, r6, r7, r8, r9, sl, fp, pc}
   13062:	89ab      	ldrh	r3, [r5, #12]
   13064:	0598      	lsls	r0, r3, #22
   13066:	d4f7      	bmi.n	13058 <_vfiprintf_r+0x44>
   13068:	6da8      	ldr	r0, [r5, #88]	@ 0x58
   1306a:	f7ff ff70 	bl	12f4e <__retarget_lock_release_recursive>
   1306e:	e7f3      	b.n	13058 <_vfiprintf_r+0x44>
   13070:	2300      	movs	r3, #0
   13072:	9309      	str	r3, [sp, #36]	@ 0x24
   13074:	2320      	movs	r3, #32
   13076:	f88d 3029 	strb.w	r3, [sp, #41]	@ 0x29
   1307a:	f8cd 800c 	str.w	r8, [sp, #12]
   1307e:	2330      	movs	r3, #48	@ 0x30
   13080:	f8df 81ac 	ldr.w	r8, [pc, #428]	@ 13230 <_vfiprintf_r+0x21c>
   13084:	f88d 302a 	strb.w	r3, [sp, #42]	@ 0x2a
   13088:	f04f 0901 	mov.w	r9, #1
   1308c:	4623      	mov	r3, r4
   1308e:	469a      	mov	sl, r3
   13090:	f813 2b01 	ldrb.w	r2, [r3], #1
   13094:	b10a      	cbz	r2, 1309a <_vfiprintf_r+0x86>
   13096:	2a25      	cmp	r2, #37	@ 0x25
   13098:	d1f9      	bne.n	1308e <_vfiprintf_r+0x7a>
   1309a:	ebba 0b04 	subs.w	fp, sl, r4
   1309e:	d00b      	beq.n	130b8 <_vfiprintf_r+0xa4>
   130a0:	465b      	mov	r3, fp
   130a2:	4622      	mov	r2, r4
   130a4:	4629      	mov	r1, r5
   130a6:	4630      	mov	r0, r6
   130a8:	f7ff ff95 	bl	12fd6 <__sfputs_r>
   130ac:	3001      	adds	r0, #1
   130ae:	f000 80a7 	beq.w	13200 <_vfiprintf_r+0x1ec>
   130b2:	9a09      	ldr	r2, [sp, #36]	@ 0x24
   130b4:	445a      	add	r2, fp
   130b6:	9209      	str	r2, [sp, #36]	@ 0x24
   130b8:	f89a 3000 	ldrb.w	r3, [sl]
   130bc:	2b00      	cmp	r3, #0
   130be:	f000 809f 	beq.w	13200 <_vfiprintf_r+0x1ec>
   130c2:	2300      	movs	r3, #0
   130c4:	f04f 32ff 	mov.w	r2, #4294967295	@ 0xffffffff
   130c8:	e9cd 2305 	strd	r2, r3, [sp, #20]
   130cc:	f10a 0a01 	add.w	sl, sl, #1
   130d0:	9304      	str	r3, [sp, #16]
   130d2:	9307      	str	r3, [sp, #28]
   130d4:	f88d 3053 	strb.w	r3, [sp, #83]	@ 0x53
   130d8:	931a      	str	r3, [sp, #104]	@ 0x68
   130da:	4654      	mov	r4, sl
   130dc:	2205      	movs	r2, #5
   130de:	f814 1b01 	ldrb.w	r1, [r4], #1
   130e2:	4853      	ldr	r0, [pc, #332]	@ (13230 <_vfiprintf_r+0x21c>)
   130e4:	f7fc ffa4 	bl	10030 <memchr>
   130e8:	9a04      	ldr	r2, [sp, #16]
   130ea:	b9d8      	cbnz	r0, 13124 <_vfiprintf_r+0x110>
   130ec:	06d1      	lsls	r1, r2, #27
   130ee:	bf44      	itt	mi
   130f0:	2320      	movmi	r3, #32
   130f2:	f88d 3053 	strbmi.w	r3, [sp, #83]	@ 0x53
   130f6:	0713      	lsls	r3, r2, #28
   130f8:	bf44      	itt	mi
   130fa:	232b      	movmi	r3, #43	@ 0x2b
   130fc:	f88d 3053 	strbmi.w	r3, [sp, #83]	@ 0x53
   13100:	f89a 3000 	ldrb.w	r3, [sl]
   13104:	2b2a      	cmp	r3, #42	@ 0x2a
   13106:	d015      	beq.n	13134 <_vfiprintf_r+0x120>
   13108:	9a07      	ldr	r2, [sp, #28]
   1310a:	4654      	mov	r4, sl
   1310c:	2000      	movs	r0, #0
   1310e:	f04f 0c0a 	mov.w	ip, #10
   13112:	4621      	mov	r1, r4
   13114:	f811 3b01 	ldrb.w	r3, [r1], #1
   13118:	3b30      	subs	r3, #48	@ 0x30
   1311a:	2b09      	cmp	r3, #9
   1311c:	d94b      	bls.n	131b6 <_vfiprintf_r+0x1a2>
   1311e:	b1b0      	cbz	r0, 1314e <_vfiprintf_r+0x13a>
   13120:	9207      	str	r2, [sp, #28]
   13122:	e014      	b.n	1314e <_vfiprintf_r+0x13a>
   13124:	eba0 0308 	sub.w	r3, r0, r8
   13128:	fa09 f303 	lsl.w	r3, r9, r3
   1312c:	4313      	orrs	r3, r2
   1312e:	9304      	str	r3, [sp, #16]
   13130:	46a2      	mov	sl, r4
   13132:	e7d2      	b.n	130da <_vfiprintf_r+0xc6>
   13134:	9b03      	ldr	r3, [sp, #12]
   13136:	1d19      	adds	r1, r3, #4
   13138:	681b      	ldr	r3, [r3, #0]
   1313a:	9103      	str	r1, [sp, #12]
   1313c:	2b00      	cmp	r3, #0
   1313e:	bfbb      	ittet	lt
   13140:	425b      	neglt	r3, r3
   13142:	f042 0202 	orrlt.w	r2, r2, #2
   13146:	9307      	strge	r3, [sp, #28]
   13148:	9307      	strlt	r3, [sp, #28]
   1314a:	bfb8      	it	lt
   1314c:	9204      	strlt	r2, [sp, #16]
   1314e:	7823      	ldrb	r3, [r4, #0]
   13150:	2b2e      	cmp	r3, #46	@ 0x2e
   13152:	d10a      	bne.n	1316a <_vfiprintf_r+0x156>
   13154:	7863      	ldrb	r3, [r4, #1]
   13156:	2b2a      	cmp	r3, #42	@ 0x2a
   13158:	d132      	bne.n	131c0 <_vfiprintf_r+0x1ac>
   1315a:	9b03      	ldr	r3, [sp, #12]
   1315c:	1d1a      	adds	r2, r3, #4
   1315e:	681b      	ldr	r3, [r3, #0]
   13160:	9203      	str	r2, [sp, #12]
   13162:	ea43 73e3 	orr.w	r3, r3, r3, asr #31
   13166:	3402      	adds	r4, #2
   13168:	9305      	str	r3, [sp, #20]
   1316a:	f8df a0d4 	ldr.w	sl, [pc, #212]	@ 13240 <_vfiprintf_r+0x22c>
   1316e:	7821      	ldrb	r1, [r4, #0]
   13170:	2203      	movs	r2, #3
   13172:	4650      	mov	r0, sl
   13174:	f7fc ff5c 	bl	10030 <memchr>
   13178:	b138      	cbz	r0, 1318a <_vfiprintf_r+0x176>
   1317a:	9b04      	ldr	r3, [sp, #16]
   1317c:	eba0 000a 	sub.w	r0, r0, sl
   13180:	2240      	movs	r2, #64	@ 0x40
   13182:	4082      	lsls	r2, r0
   13184:	4313      	orrs	r3, r2
   13186:	3401      	adds	r4, #1
   13188:	9304      	str	r3, [sp, #16]
   1318a:	f814 1b01 	ldrb.w	r1, [r4], #1
   1318e:	4829      	ldr	r0, [pc, #164]	@ (13234 <_vfiprintf_r+0x220>)
   13190:	f88d 1028 	strb.w	r1, [sp, #40]	@ 0x28
   13194:	2206      	movs	r2, #6
   13196:	f7fc ff4b 	bl	10030 <memchr>
   1319a:	2800      	cmp	r0, #0
   1319c:	d03f      	beq.n	1321e <_vfiprintf_r+0x20a>
   1319e:	4b26      	ldr	r3, [pc, #152]	@ (13238 <_vfiprintf_r+0x224>)
   131a0:	bb1b      	cbnz	r3, 131ea <_vfiprintf_r+0x1d6>
   131a2:	9b03      	ldr	r3, [sp, #12]
   131a4:	3307      	adds	r3, #7
   131a6:	f023 0307 	bic.w	r3, r3, #7
   131aa:	3308      	adds	r3, #8
   131ac:	9303      	str	r3, [sp, #12]
   131ae:	9b09      	ldr	r3, [sp, #36]	@ 0x24
   131b0:	443b      	add	r3, r7
   131b2:	9309      	str	r3, [sp, #36]	@ 0x24
   131b4:	e76a      	b.n	1308c <_vfiprintf_r+0x78>
   131b6:	fb0c 3202 	mla	r2, ip, r2, r3
   131ba:	460c      	mov	r4, r1
   131bc:	2001      	movs	r0, #1
   131be:	e7a8      	b.n	13112 <_vfiprintf_r+0xfe>
   131c0:	2300      	movs	r3, #0
   131c2:	3401      	adds	r4, #1
   131c4:	9305      	str	r3, [sp, #20]
   131c6:	4619      	mov	r1, r3
   131c8:	f04f 0c0a 	mov.w	ip, #10
   131cc:	4620      	mov	r0, r4
   131ce:	f810 2b01 	ldrb.w	r2, [r0], #1
   131d2:	3a30      	subs	r2, #48	@ 0x30
   131d4:	2a09      	cmp	r2, #9
   131d6:	d903      	bls.n	131e0 <_vfiprintf_r+0x1cc>
   131d8:	2b00      	cmp	r3, #0
   131da:	d0c6      	beq.n	1316a <_vfiprintf_r+0x156>
   131dc:	9105      	str	r1, [sp, #20]
   131de:	e7c4      	b.n	1316a <_vfiprintf_r+0x156>
   131e0:	fb0c 2101 	mla	r1, ip, r1, r2
   131e4:	4604      	mov	r4, r0
   131e6:	2301      	movs	r3, #1
   131e8:	e7f0      	b.n	131cc <_vfiprintf_r+0x1b8>
   131ea:	ab03      	add	r3, sp, #12
   131ec:	9300      	str	r3, [sp, #0]
   131ee:	462a      	mov	r2, r5
   131f0:	4b12      	ldr	r3, [pc, #72]	@ (1323c <_vfiprintf_r+0x228>)
   131f2:	a904      	add	r1, sp, #16
   131f4:	4630      	mov	r0, r6
   131f6:	f7fd fe4f 	bl	10e98 <_printf_float>
   131fa:	4607      	mov	r7, r0
   131fc:	1c78      	adds	r0, r7, #1
   131fe:	d1d6      	bne.n	131ae <_vfiprintf_r+0x19a>
   13200:	6e6b      	ldr	r3, [r5, #100]	@ 0x64
   13202:	07d9      	lsls	r1, r3, #31
   13204:	d405      	bmi.n	13212 <_vfiprintf_r+0x1fe>
   13206:	89ab      	ldrh	r3, [r5, #12]
   13208:	059a      	lsls	r2, r3, #22
   1320a:	d402      	bmi.n	13212 <_vfiprintf_r+0x1fe>
   1320c:	6da8      	ldr	r0, [r5, #88]	@ 0x58
   1320e:	f7ff fe9e 	bl	12f4e <__retarget_lock_release_recursive>
   13212:	89ab      	ldrh	r3, [r5, #12]
   13214:	065b      	lsls	r3, r3, #25
   13216:	f53f af1f 	bmi.w	13058 <_vfiprintf_r+0x44>
   1321a:	9809      	ldr	r0, [sp, #36]	@ 0x24
   1321c:	e71e      	b.n	1305c <_vfiprintf_r+0x48>
   1321e:	ab03      	add	r3, sp, #12
   13220:	9300      	str	r3, [sp, #0]
   13222:	462a      	mov	r2, r5
   13224:	4b05      	ldr	r3, [pc, #20]	@ (1323c <_vfiprintf_r+0x228>)
   13226:	a904      	add	r1, sp, #16
   13228:	4630      	mov	r0, r6
   1322a:	f7fe f8cd 	bl	113c8 <_printf_i>
   1322e:	e7e4      	b.n	131fa <_vfiprintf_r+0x1e6>
   13230:	00014362 	andeq	r4, r1, r2, ror #6
   13234:	0001436c 	andeq	r4, r1, ip, ror #6
   13238:	00010e99 	muleq	r1, r9, lr
   1323c:	00012fd7 	ldrdeq	r2, [r1], -r7
   13240:	00014368 	andeq	r4, r1, r8, ror #6

Disassembly of section .text.vfprintf:

00013244 <vfiprintf>:
   13244:	4613      	mov	r3, r2
   13246:	460a      	mov	r2, r1
   13248:	4601      	mov	r1, r0
   1324a:	4802      	ldr	r0, [pc, #8]	@ (13254 <vfiprintf+0x10>)
   1324c:	6800      	ldr	r0, [r0, #0]
   1324e:	f7ff bee1 	b.w	13014 <_vfiprintf_r>
   13252:	bf00      	nop
   13254:	00014630 	andeq	r4, r1, r0, lsr r6

Disassembly of section .text.__swbuf_r:

00013258 <__swbuf_r>:
   13258:	b5f8      	push	{r3, r4, r5, r6, r7, lr}
   1325a:	460e      	mov	r6, r1
   1325c:	4614      	mov	r4, r2
   1325e:	4605      	mov	r5, r0
   13260:	b118      	cbz	r0, 1326a <__swbuf_r+0x12>
   13262:	6a03      	ldr	r3, [r0, #32]
   13264:	b90b      	cbnz	r3, 1326a <__swbuf_r+0x12>
   13266:	f000 fadb 	bl	13820 <__sinit>
   1326a:	69a3      	ldr	r3, [r4, #24]
   1326c:	60a3      	str	r3, [r4, #8]
   1326e:	89a3      	ldrh	r3, [r4, #12]
   13270:	071a      	lsls	r2, r3, #28
   13272:	d501      	bpl.n	13278 <__swbuf_r+0x20>
   13274:	6923      	ldr	r3, [r4, #16]
   13276:	b943      	cbnz	r3, 1328a <__swbuf_r+0x32>
   13278:	4621      	mov	r1, r4
   1327a:	4628      	mov	r0, r5
   1327c:	f000 f832 	bl	132e4 <__swsetup_r>
   13280:	b118      	cbz	r0, 1328a <__swbuf_r+0x32>
   13282:	f04f 37ff 	mov.w	r7, #4294967295	@ 0xffffffff
   13286:	4638      	mov	r0, r7
   13288:	bdf8      	pop	{r3, r4, r5, r6, r7, pc}
   1328a:	6823      	ldr	r3, [r4, #0]
   1328c:	6922      	ldr	r2, [r4, #16]
   1328e:	1a98      	subs	r0, r3, r2
   13290:	6963      	ldr	r3, [r4, #20]
   13292:	b2f6      	uxtb	r6, r6
   13294:	4283      	cmp	r3, r0
   13296:	4637      	mov	r7, r6
   13298:	dc05      	bgt.n	132a6 <__swbuf_r+0x4e>
   1329a:	4621      	mov	r1, r4
   1329c:	4628      	mov	r0, r5
   1329e:	f000 f969 	bl	13574 <_fflush_r>
   132a2:	2800      	cmp	r0, #0
   132a4:	d1ed      	bne.n	13282 <__swbuf_r+0x2a>
   132a6:	68a3      	ldr	r3, [r4, #8]
   132a8:	3b01      	subs	r3, #1
   132aa:	60a3      	str	r3, [r4, #8]
   132ac:	6823      	ldr	r3, [r4, #0]
   132ae:	1c5a      	adds	r2, r3, #1
   132b0:	6022      	str	r2, [r4, #0]
   132b2:	701e      	strb	r6, [r3, #0]
   132b4:	6962      	ldr	r2, [r4, #20]
   132b6:	1c43      	adds	r3, r0, #1
   132b8:	429a      	cmp	r2, r3
   132ba:	d004      	beq.n	132c6 <__swbuf_r+0x6e>
   132bc:	89a3      	ldrh	r3, [r4, #12]
   132be:	07db      	lsls	r3, r3, #31
   132c0:	d5e1      	bpl.n	13286 <__swbuf_r+0x2e>
   132c2:	2e0a      	cmp	r6, #10
   132c4:	d1df      	bne.n	13286 <__swbuf_r+0x2e>
   132c6:	4621      	mov	r1, r4
   132c8:	4628      	mov	r0, r5
   132ca:	f000 f953 	bl	13574 <_fflush_r>
   132ce:	2800      	cmp	r0, #0
   132d0:	d0d9      	beq.n	13286 <__swbuf_r+0x2e>
   132d2:	e7d6      	b.n	13282 <__swbuf_r+0x2a>

Disassembly of section .text.__swbuf:

000132d4 <__swbuf>:
   132d4:	4b02      	ldr	r3, [pc, #8]	@ (132e0 <__swbuf+0xc>)
   132d6:	460a      	mov	r2, r1
   132d8:	4601      	mov	r1, r0
   132da:	6818      	ldr	r0, [r3, #0]
   132dc:	f7ff bfbc 	b.w	13258 <__swbuf_r>
   132e0:	00014630 	andeq	r4, r1, r0, lsr r6

Disassembly of section .text.__swsetup_r:

000132e4 <__swsetup_r>:
   132e4:	b538      	push	{r3, r4, r5, lr}
   132e6:	4b29      	ldr	r3, [pc, #164]	@ (1338c <__swsetup_r+0xa8>)
   132e8:	4605      	mov	r5, r0
   132ea:	6818      	ldr	r0, [r3, #0]
   132ec:	460c      	mov	r4, r1
   132ee:	b118      	cbz	r0, 132f8 <__swsetup_r+0x14>
   132f0:	6a03      	ldr	r3, [r0, #32]
   132f2:	b90b      	cbnz	r3, 132f8 <__swsetup_r+0x14>
   132f4:	f000 fa94 	bl	13820 <__sinit>
   132f8:	f9b4 300c 	ldrsh.w	r3, [r4, #12]
   132fc:	0719      	lsls	r1, r3, #28
   132fe:	d422      	bmi.n	13346 <__swsetup_r+0x62>
   13300:	06da      	lsls	r2, r3, #27
   13302:	d407      	bmi.n	13314 <__swsetup_r+0x30>
   13304:	2209      	movs	r2, #9
   13306:	602a      	str	r2, [r5, #0]
   13308:	f043 0340 	orr.w	r3, r3, #64	@ 0x40
   1330c:	81a3      	strh	r3, [r4, #12]
   1330e:	f04f 30ff 	mov.w	r0, #4294967295	@ 0xffffffff
   13312:	e033      	b.n	1337c <__swsetup_r+0x98>
   13314:	0758      	lsls	r0, r3, #29
   13316:	d512      	bpl.n	1333e <__swsetup_r+0x5a>
   13318:	6b61      	ldr	r1, [r4, #52]	@ 0x34
   1331a:	b141      	cbz	r1, 1332e <__swsetup_r+0x4a>
   1331c:	f104 0344 	add.w	r3, r4, #68	@ 0x44
   13320:	4299      	cmp	r1, r3
   13322:	d002      	beq.n	1332a <__swsetup_r+0x46>
   13324:	4628      	mov	r0, r5
   13326:	f7ff fdbd 	bl	12ea4 <_free_r>
   1332a:	2300      	movs	r3, #0
   1332c:	6363      	str	r3, [r4, #52]	@ 0x34
   1332e:	89a3      	ldrh	r3, [r4, #12]
   13330:	f023 0324 	bic.w	r3, r3, #36	@ 0x24
   13334:	81a3      	strh	r3, [r4, #12]
   13336:	2300      	movs	r3, #0
   13338:	6063      	str	r3, [r4, #4]
   1333a:	6923      	ldr	r3, [r4, #16]
   1333c:	6023      	str	r3, [r4, #0]
   1333e:	89a3      	ldrh	r3, [r4, #12]
   13340:	f043 0308 	orr.w	r3, r3, #8
   13344:	81a3      	strh	r3, [r4, #12]
   13346:	6923      	ldr	r3, [r4, #16]
   13348:	b94b      	cbnz	r3, 1335e <__swsetup_r+0x7a>
   1334a:	89a3      	ldrh	r3, [r4, #12]
   1334c:	f403 7320 	and.w	r3, r3, #640	@ 0x280
   13350:	f5b3 7f00 	cmp.w	r3, #512	@ 0x200
   13354:	d003      	beq.n	1335e <__swsetup_r+0x7a>
   13356:	4621      	mov	r1, r4
   13358:	4628      	mov	r0, r5
   1335a:	f000 fcd7 	bl	13d0c <__smakebuf_r>
   1335e:	f9b4 300c 	ldrsh.w	r3, [r4, #12]
   13362:	f013 0201 	ands.w	r2, r3, #1
   13366:	d00a      	beq.n	1337e <__swsetup_r+0x9a>
   13368:	2200      	movs	r2, #0
   1336a:	60a2      	str	r2, [r4, #8]
   1336c:	6962      	ldr	r2, [r4, #20]
   1336e:	4252      	negs	r2, r2
   13370:	61a2      	str	r2, [r4, #24]
   13372:	6922      	ldr	r2, [r4, #16]
   13374:	b942      	cbnz	r2, 13388 <__swsetup_r+0xa4>
   13376:	f013 0080 	ands.w	r0, r3, #128	@ 0x80
   1337a:	d1c5      	bne.n	13308 <__swsetup_r+0x24>
   1337c:	bd38      	pop	{r3, r4, r5, pc}
   1337e:	0799      	lsls	r1, r3, #30
   13380:	bf58      	it	pl
   13382:	6962      	ldrpl	r2, [r4, #20]
   13384:	60a2      	str	r2, [r4, #8]
   13386:	e7f4      	b.n	13372 <__swsetup_r+0x8e>
   13388:	2000      	movs	r0, #0
   1338a:	e7f7      	b.n	1337c <__swsetup_r+0x98>
   1338c:	00014630 	andeq	r4, r1, r0, lsr r6

Disassembly of section .text._wctomb_r:

00013390 <_wctomb_r>:
   13390:	b410      	push	{r4}
   13392:	4c03      	ldr	r4, [pc, #12]	@ (133a0 <_wctomb_r+0x10>)
   13394:	f8d4 40e0 	ldr.w	r4, [r4, #224]	@ 0xe0
   13398:	46a4      	mov	ip, r4
   1339a:	f85d 4b04 	ldr.w	r4, [sp], #4
   1339e:	4760      	bx	ip
   133a0:	000144c4 	andeq	r4, r1, r4, asr #9

Disassembly of section .text.__ascii_wctomb:

000133a4 <__ascii_wctomb>:
   133a4:	4603      	mov	r3, r0
   133a6:	4608      	mov	r0, r1
   133a8:	b141      	cbz	r1, 133bc <__ascii_wctomb+0x18>
   133aa:	2aff      	cmp	r2, #255	@ 0xff
   133ac:	d904      	bls.n	133b8 <__ascii_wctomb+0x14>
   133ae:	228a      	movs	r2, #138	@ 0x8a
   133b0:	601a      	str	r2, [r3, #0]
   133b2:	f04f 30ff 	mov.w	r0, #4294967295	@ 0xffffffff
   133b6:	4770      	bx	lr
   133b8:	700a      	strb	r2, [r1, #0]
   133ba:	2001      	movs	r0, #1
   133bc:	4770      	bx	lr

Disassembly of section .text._reclaim_reent:

000133c0 <_reclaim_reent>:
   133c0:	4b29      	ldr	r3, [pc, #164]	@ (13468 <_reclaim_reent+0xa8>)
   133c2:	681b      	ldr	r3, [r3, #0]
   133c4:	4283      	cmp	r3, r0
   133c6:	b570      	push	{r4, r5, r6, lr}
   133c8:	4604      	mov	r4, r0
   133ca:	d04b      	beq.n	13464 <_reclaim_reent+0xa4>
   133cc:	69c3      	ldr	r3, [r0, #28]
   133ce:	b1ab      	cbz	r3, 133fc <_reclaim_reent+0x3c>
   133d0:	68db      	ldr	r3, [r3, #12]
   133d2:	b16b      	cbz	r3, 133f0 <_reclaim_reent+0x30>
   133d4:	2500      	movs	r5, #0
   133d6:	69e3      	ldr	r3, [r4, #28]
   133d8:	68db      	ldr	r3, [r3, #12]
   133da:	5959      	ldr	r1, [r3, r5]
   133dc:	2900      	cmp	r1, #0
   133de:	d13b      	bne.n	13458 <_reclaim_reent+0x98>
   133e0:	3504      	adds	r5, #4
   133e2:	2d80      	cmp	r5, #128	@ 0x80
   133e4:	d1f7      	bne.n	133d6 <_reclaim_reent+0x16>
   133e6:	69e3      	ldr	r3, [r4, #28]
   133e8:	4620      	mov	r0, r4
   133ea:	68d9      	ldr	r1, [r3, #12]
   133ec:	f7ff fd5a 	bl	12ea4 <_free_r>
   133f0:	69e3      	ldr	r3, [r4, #28]
   133f2:	6819      	ldr	r1, [r3, #0]
   133f4:	b111      	cbz	r1, 133fc <_reclaim_reent+0x3c>
   133f6:	4620      	mov	r0, r4
   133f8:	f7ff fd54 	bl	12ea4 <_free_r>
   133fc:	6961      	ldr	r1, [r4, #20]
   133fe:	b111      	cbz	r1, 13406 <_reclaim_reent+0x46>
   13400:	4620      	mov	r0, r4
   13402:	f7ff fd4f 	bl	12ea4 <_free_r>
   13406:	69e1      	ldr	r1, [r4, #28]
   13408:	b111      	cbz	r1, 13410 <_reclaim_reent+0x50>
   1340a:	4620      	mov	r0, r4
   1340c:	f7ff fd4a 	bl	12ea4 <_free_r>
   13410:	6b21      	ldr	r1, [r4, #48]	@ 0x30
   13412:	b111      	cbz	r1, 1341a <_reclaim_reent+0x5a>
   13414:	4620      	mov	r0, r4
   13416:	f7ff fd45 	bl	12ea4 <_free_r>
   1341a:	6b61      	ldr	r1, [r4, #52]	@ 0x34
   1341c:	b111      	cbz	r1, 13424 <_reclaim_reent+0x64>
   1341e:	4620      	mov	r0, r4
   13420:	f7ff fd40 	bl	12ea4 <_free_r>
   13424:	6ba1      	ldr	r1, [r4, #56]	@ 0x38
   13426:	b111      	cbz	r1, 1342e <_reclaim_reent+0x6e>
   13428:	4620      	mov	r0, r4
   1342a:	f7ff fd3b 	bl	12ea4 <_free_r>
   1342e:	6ca1      	ldr	r1, [r4, #72]	@ 0x48
   13430:	b111      	cbz	r1, 13438 <_reclaim_reent+0x78>
   13432:	4620      	mov	r0, r4
   13434:	f7ff fd36 	bl	12ea4 <_free_r>
   13438:	6c61      	ldr	r1, [r4, #68]	@ 0x44
   1343a:	b111      	cbz	r1, 13442 <_reclaim_reent+0x82>
   1343c:	4620      	mov	r0, r4
   1343e:	f7ff fd31 	bl	12ea4 <_free_r>
   13442:	6ae1      	ldr	r1, [r4, #44]	@ 0x2c
   13444:	b111      	cbz	r1, 1344c <_reclaim_reent+0x8c>
   13446:	4620      	mov	r0, r4
   13448:	f7ff fd2c 	bl	12ea4 <_free_r>
   1344c:	6a23      	ldr	r3, [r4, #32]
   1344e:	b14b      	cbz	r3, 13464 <_reclaim_reent+0xa4>
   13450:	4620      	mov	r0, r4
   13452:	e8bd 4070 	ldmia.w	sp!, {r4, r5, r6, lr}
   13456:	4718      	bx	r3
   13458:	680e      	ldr	r6, [r1, #0]
   1345a:	4620      	mov	r0, r4
   1345c:	f7ff fd22 	bl	12ea4 <_free_r>
   13460:	4631      	mov	r1, r6
   13462:	e7bb      	b.n	133dc <_reclaim_reent+0x1c>
   13464:	bd70      	pop	{r4, r5, r6, pc}
   13466:	bf00      	nop
   13468:	00014630 	andeq	r4, r1, r0, lsr r6

Disassembly of section .text.__sflush_r:

0001346c <__sflush_r>:
   1346c:	f9b1 200c 	ldrsh.w	r2, [r1, #12]
   13470:	e92d 41f0 	stmdb	sp!, {r4, r5, r6, r7, r8, lr}
   13474:	0716      	lsls	r6, r2, #28
   13476:	4605      	mov	r5, r0
   13478:	460c      	mov	r4, r1
   1347a:	d454      	bmi.n	13526 <__sflush_r+0xba>
   1347c:	684b      	ldr	r3, [r1, #4]
   1347e:	2b00      	cmp	r3, #0
   13480:	dc02      	bgt.n	13488 <__sflush_r+0x1c>
   13482:	6c0b      	ldr	r3, [r1, #64]	@ 0x40
   13484:	2b00      	cmp	r3, #0
   13486:	dd48      	ble.n	1351a <__sflush_r+0xae>
   13488:	6ae6      	ldr	r6, [r4, #44]	@ 0x2c
   1348a:	2e00      	cmp	r6, #0
   1348c:	d045      	beq.n	1351a <__sflush_r+0xae>
   1348e:	2300      	movs	r3, #0
   13490:	f412 5280 	ands.w	r2, r2, #4096	@ 0x1000
   13494:	682f      	ldr	r7, [r5, #0]
   13496:	6a21      	ldr	r1, [r4, #32]
   13498:	602b      	str	r3, [r5, #0]
   1349a:	d030      	beq.n	134fe <__sflush_r+0x92>
   1349c:	6d62      	ldr	r2, [r4, #84]	@ 0x54
   1349e:	89a3      	ldrh	r3, [r4, #12]
   134a0:	0759      	lsls	r1, r3, #29
   134a2:	d505      	bpl.n	134b0 <__sflush_r+0x44>
   134a4:	6863      	ldr	r3, [r4, #4]
   134a6:	1ad2      	subs	r2, r2, r3
   134a8:	6b63      	ldr	r3, [r4, #52]	@ 0x34
   134aa:	b10b      	cbz	r3, 134b0 <__sflush_r+0x44>
   134ac:	6c23      	ldr	r3, [r4, #64]	@ 0x40
   134ae:	1ad2      	subs	r2, r2, r3
   134b0:	2300      	movs	r3, #0
   134b2:	6ae6      	ldr	r6, [r4, #44]	@ 0x2c
   134b4:	6a21      	ldr	r1, [r4, #32]
   134b6:	4628      	mov	r0, r5
   134b8:	47b0      	blx	r6
   134ba:	1c43      	adds	r3, r0, #1
   134bc:	89a3      	ldrh	r3, [r4, #12]
   134be:	d106      	bne.n	134ce <__sflush_r+0x62>
   134c0:	6829      	ldr	r1, [r5, #0]
   134c2:	291d      	cmp	r1, #29
   134c4:	d82b      	bhi.n	1351e <__sflush_r+0xb2>
   134c6:	4a2a      	ldr	r2, [pc, #168]	@ (13570 <__sflush_r+0x104>)
   134c8:	40ca      	lsrs	r2, r1
   134ca:	07d6      	lsls	r6, r2, #31
   134cc:	d527      	bpl.n	1351e <__sflush_r+0xb2>
   134ce:	2200      	movs	r2, #0
   134d0:	6062      	str	r2, [r4, #4]
   134d2:	04d9      	lsls	r1, r3, #19
   134d4:	6922      	ldr	r2, [r4, #16]
   134d6:	6022      	str	r2, [r4, #0]
   134d8:	d504      	bpl.n	134e4 <__sflush_r+0x78>
   134da:	1c42      	adds	r2, r0, #1
   134dc:	d101      	bne.n	134e2 <__sflush_r+0x76>
   134de:	682b      	ldr	r3, [r5, #0]
   134e0:	b903      	cbnz	r3, 134e4 <__sflush_r+0x78>
   134e2:	6560      	str	r0, [r4, #84]	@ 0x54
   134e4:	6b61      	ldr	r1, [r4, #52]	@ 0x34
   134e6:	602f      	str	r7, [r5, #0]
   134e8:	b1b9      	cbz	r1, 1351a <__sflush_r+0xae>
   134ea:	f104 0344 	add.w	r3, r4, #68	@ 0x44
   134ee:	4299      	cmp	r1, r3
   134f0:	d002      	beq.n	134f8 <__sflush_r+0x8c>
   134f2:	4628      	mov	r0, r5
   134f4:	f7ff fcd6 	bl	12ea4 <_free_r>
   134f8:	2300      	movs	r3, #0
   134fa:	6363      	str	r3, [r4, #52]	@ 0x34
   134fc:	e00d      	b.n	1351a <__sflush_r+0xae>
   134fe:	2301      	movs	r3, #1
   13500:	4628      	mov	r0, r5
   13502:	47b0      	blx	r6
   13504:	4602      	mov	r2, r0
   13506:	1c50      	adds	r0, r2, #1
   13508:	d1c9      	bne.n	1349e <__sflush_r+0x32>
   1350a:	682b      	ldr	r3, [r5, #0]
   1350c:	2b00      	cmp	r3, #0
   1350e:	d0c6      	beq.n	1349e <__sflush_r+0x32>
   13510:	2b1d      	cmp	r3, #29
   13512:	d001      	beq.n	13518 <__sflush_r+0xac>
   13514:	2b16      	cmp	r3, #22
   13516:	d11e      	bne.n	13556 <__sflush_r+0xea>
   13518:	602f      	str	r7, [r5, #0]
   1351a:	2000      	movs	r0, #0
   1351c:	e022      	b.n	13564 <__sflush_r+0xf8>
   1351e:	f043 0340 	orr.w	r3, r3, #64	@ 0x40
   13522:	b21b      	sxth	r3, r3
   13524:	e01b      	b.n	1355e <__sflush_r+0xf2>
   13526:	690f      	ldr	r7, [r1, #16]
   13528:	2f00      	cmp	r7, #0
   1352a:	d0f6      	beq.n	1351a <__sflush_r+0xae>
   1352c:	0793      	lsls	r3, r2, #30
   1352e:	680e      	ldr	r6, [r1, #0]
   13530:	bf08      	it	eq
   13532:	694b      	ldreq	r3, [r1, #20]
   13534:	600f      	str	r7, [r1, #0]
   13536:	bf18      	it	ne
   13538:	2300      	movne	r3, #0
   1353a:	eba6 0807 	sub.w	r8, r6, r7
   1353e:	608b      	str	r3, [r1, #8]
   13540:	f1b8 0f00 	cmp.w	r8, #0
   13544:	dde9      	ble.n	1351a <__sflush_r+0xae>
   13546:	6a21      	ldr	r1, [r4, #32]
   13548:	6aa6      	ldr	r6, [r4, #40]	@ 0x28
   1354a:	4643      	mov	r3, r8
   1354c:	463a      	mov	r2, r7
   1354e:	4628      	mov	r0, r5
   13550:	47b0      	blx	r6
   13552:	2800      	cmp	r0, #0
   13554:	dc08      	bgt.n	13568 <__sflush_r+0xfc>
   13556:	f9b4 300c 	ldrsh.w	r3, [r4, #12]
   1355a:	f043 0340 	orr.w	r3, r3, #64	@ 0x40
   1355e:	81a3      	strh	r3, [r4, #12]
   13560:	f04f 30ff 	mov.w	r0, #4294967295	@ 0xffffffff
   13564:	e8bd 81f0 	ldmia.w	sp!, {r4, r5, r6, r7, r8, pc}
   13568:	4407      	add	r7, r0
   1356a:	eba8 0800 	sub.w	r8, r8, r0
   1356e:	e7e7      	b.n	13540 <__sflush_r+0xd4>
   13570:	20400001 	subcs	r0, r0, r1

Disassembly of section .text._fflush_r:

00013574 <_fflush_r>:
   13574:	b538      	push	{r3, r4, r5, lr}
   13576:	690b      	ldr	r3, [r1, #16]
   13578:	4605      	mov	r5, r0
   1357a:	460c      	mov	r4, r1
   1357c:	b913      	cbnz	r3, 13584 <_fflush_r+0x10>
   1357e:	2500      	movs	r5, #0
   13580:	4628      	mov	r0, r5
   13582:	bd38      	pop	{r3, r4, r5, pc}
   13584:	b118      	cbz	r0, 1358e <_fflush_r+0x1a>
   13586:	6a03      	ldr	r3, [r0, #32]
   13588:	b90b      	cbnz	r3, 1358e <_fflush_r+0x1a>
   1358a:	f000 f949 	bl	13820 <__sinit>
   1358e:	f9b4 300c 	ldrsh.w	r3, [r4, #12]
   13592:	2b00      	cmp	r3, #0
   13594:	d0f3      	beq.n	1357e <_fflush_r+0xa>
   13596:	6e62      	ldr	r2, [r4, #100]	@ 0x64
   13598:	07d0      	lsls	r0, r2, #31
   1359a:	d404      	bmi.n	135a6 <_fflush_r+0x32>
   1359c:	0599      	lsls	r1, r3, #22
   1359e:	d402      	bmi.n	135a6 <_fflush_r+0x32>
   135a0:	6da0      	ldr	r0, [r4, #88]	@ 0x58
   135a2:	f7ff fcce 	bl	12f42 <__retarget_lock_acquire_recursive>
   135a6:	4628      	mov	r0, r5
   135a8:	4621      	mov	r1, r4
   135aa:	f7ff ff5f 	bl	1346c <__sflush_r>
   135ae:	6e63      	ldr	r3, [r4, #100]	@ 0x64
   135b0:	07da      	lsls	r2, r3, #31
   135b2:	4605      	mov	r5, r0
   135b4:	d4e4      	bmi.n	13580 <_fflush_r+0xc>
   135b6:	89a3      	ldrh	r3, [r4, #12]
   135b8:	059b      	lsls	r3, r3, #22
   135ba:	d4e1      	bmi.n	13580 <_fflush_r+0xc>
   135bc:	6da0      	ldr	r0, [r4, #88]	@ 0x58
   135be:	f7ff fcc6 	bl	12f4e <__retarget_lock_release_recursive>
   135c2:	e7dd      	b.n	13580 <_fflush_r+0xc>

Disassembly of section .text.fflush:

000135c4 <fflush>:
   135c4:	4601      	mov	r1, r0
   135c6:	b920      	cbnz	r0, 135d2 <fflush+0xe>
   135c8:	4a04      	ldr	r2, [pc, #16]	@ (135dc <fflush+0x18>)
   135ca:	4905      	ldr	r1, [pc, #20]	@ (135e0 <fflush+0x1c>)
   135cc:	4805      	ldr	r0, [pc, #20]	@ (135e4 <fflush+0x20>)
   135ce:	f000 bb11 	b.w	13bf4 <_fwalk_sglue>
   135d2:	4b05      	ldr	r3, [pc, #20]	@ (135e8 <fflush+0x24>)
   135d4:	6818      	ldr	r0, [r3, #0]
   135d6:	f7ff bfcd 	b.w	13574 <_fflush_r>
   135da:	bf00      	nop
   135dc:	00014680 	andeq	r4, r1, r0, lsl #13
   135e0:	00013575 	andeq	r3, r1, r5, ror r5
   135e4:	00014634 	andeq	r4, r1, r4, lsr r6
   135e8:	00014630 	andeq	r4, r1, r0, lsr r6

Disassembly of section .text.abort:

000135ec <abort>:
   135ec:	b508      	push	{r3, lr}
   135ee:	2006      	movs	r0, #6
   135f0:	f000 fc50 	bl	13e94 <raise>
   135f4:	2001      	movs	r0, #1
   135f6:	f000 fd21 	bl	1403c <_exit>

Disassembly of section .text._mbtowc_r:

000135fc <_mbtowc_r>:
   135fc:	b410      	push	{r4}
   135fe:	4c03      	ldr	r4, [pc, #12]	@ (1360c <_mbtowc_r+0x10>)
   13600:	f8d4 40e4 	ldr.w	r4, [r4, #228]	@ 0xe4
   13604:	46a4      	mov	ip, r4
   13606:	f85d 4b04 	ldr.w	r4, [sp], #4
   1360a:	4760      	bx	ip
   1360c:	000144c4 	andeq	r4, r1, r4, asr #9

Disassembly of section .text.__ascii_mbtowc:

00013610 <__ascii_mbtowc>:
   13610:	b082      	sub	sp, #8
   13612:	b901      	cbnz	r1, 13616 <__ascii_mbtowc+0x6>
   13614:	a901      	add	r1, sp, #4
   13616:	b142      	cbz	r2, 1362a <__ascii_mbtowc+0x1a>
   13618:	b14b      	cbz	r3, 1362e <__ascii_mbtowc+0x1e>
   1361a:	7813      	ldrb	r3, [r2, #0]
   1361c:	600b      	str	r3, [r1, #0]
   1361e:	7812      	ldrb	r2, [r2, #0]
   13620:	1e10      	subs	r0, r2, #0
   13622:	bf18      	it	ne
   13624:	2001      	movne	r0, #1
   13626:	b002      	add	sp, #8
   13628:	4770      	bx	lr
   1362a:	4610      	mov	r0, r2
   1362c:	e7fb      	b.n	13626 <__ascii_mbtowc+0x16>
   1362e:	f06f 0001 	mvn.w	r0, #1
   13632:	e7f8      	b.n	13626 <__ascii_mbtowc+0x16>

Disassembly of section .text.std:

00013634 <std>:
   13634:	2300      	movs	r3, #0
   13636:	b510      	push	{r4, lr}
   13638:	4604      	mov	r4, r0
   1363a:	e9c0 3300 	strd	r3, r3, [r0]
   1363e:	e9c0 3304 	strd	r3, r3, [r0, #16]
   13642:	6083      	str	r3, [r0, #8]
   13644:	8181      	strh	r1, [r0, #12]
   13646:	6643      	str	r3, [r0, #100]	@ 0x64
   13648:	81c2      	strh	r2, [r0, #14]
   1364a:	6183      	str	r3, [r0, #24]
   1364c:	4619      	mov	r1, r3
   1364e:	2208      	movs	r2, #8
   13650:	305c      	adds	r0, #92	@ 0x5c
   13652:	f7ff fc1f 	bl	12e94 <memset>
   13656:	4b0d      	ldr	r3, [pc, #52]	@ (1368c <std+0x58>)
   13658:	6263      	str	r3, [r4, #36]	@ 0x24
   1365a:	4b0d      	ldr	r3, [pc, #52]	@ (13690 <std+0x5c>)
   1365c:	62a3      	str	r3, [r4, #40]	@ 0x28
   1365e:	4b0d      	ldr	r3, [pc, #52]	@ (13694 <std+0x60>)
   13660:	62e3      	str	r3, [r4, #44]	@ 0x2c
   13662:	4b0d      	ldr	r3, [pc, #52]	@ (13698 <std+0x64>)
   13664:	6323      	str	r3, [r4, #48]	@ 0x30
   13666:	4b0d      	ldr	r3, [pc, #52]	@ (1369c <std+0x68>)
   13668:	6224      	str	r4, [r4, #32]
   1366a:	429c      	cmp	r4, r3
   1366c:	d006      	beq.n	1367c <std+0x48>
   1366e:	f103 0268 	add.w	r2, r3, #104	@ 0x68
   13672:	4294      	cmp	r4, r2
   13674:	d002      	beq.n	1367c <std+0x48>
   13676:	33d0      	adds	r3, #208	@ 0xd0
   13678:	429c      	cmp	r4, r3
   1367a:	d105      	bne.n	13688 <std+0x54>
   1367c:	f104 0058 	add.w	r0, r4, #88	@ 0x58
   13680:	e8bd 4010 	ldmia.w	sp!, {r4, lr}
   13684:	f7ff bc59 	b.w	12f3a <__retarget_lock_init_recursive>
   13688:	bd10      	pop	{r4, pc}
   1368a:	bf00      	nop
   1368c:	00013889 	andeq	r3, r1, r9, lsl #17
   13690:	000138af 	andeq	r3, r1, pc, lsr #17
   13694:	000138e7 	andeq	r3, r1, r7, ror #17
   13698:	0001390b 	andeq	r3, r1, fp, lsl #18
   1369c:	00014ba8 	andeq	r4, r1, r8, lsr #23

Disassembly of section .text.stdio_exit_handler:

000136a0 <stdio_exit_handler>:
   136a0:	4a02      	ldr	r2, [pc, #8]	@ (136ac <stdio_exit_handler+0xc>)
   136a2:	4903      	ldr	r1, [pc, #12]	@ (136b0 <stdio_exit_handler+0x10>)
   136a4:	4803      	ldr	r0, [pc, #12]	@ (136b4 <stdio_exit_handler+0x14>)
   136a6:	f000 baa5 	b.w	13bf4 <_fwalk_sglue>
   136aa:	bf00      	nop
   136ac:	00014680 	andeq	r4, r1, r0, lsl #13
   136b0:	00013575 	andeq	r3, r1, r5, ror r5
   136b4:	00014634 	andeq	r4, r1, r4, lsr r6

Disassembly of section .text.cleanup_stdio:

000136b8 <cleanup_stdio>:
   136b8:	6841      	ldr	r1, [r0, #4]
   136ba:	4b0c      	ldr	r3, [pc, #48]	@ (136ec <cleanup_stdio+0x34>)
   136bc:	4299      	cmp	r1, r3
   136be:	b510      	push	{r4, lr}
   136c0:	4604      	mov	r4, r0
   136c2:	d001      	beq.n	136c8 <cleanup_stdio+0x10>
   136c4:	f7ff ff56 	bl	13574 <_fflush_r>
   136c8:	68a1      	ldr	r1, [r4, #8]
   136ca:	4b09      	ldr	r3, [pc, #36]	@ (136f0 <cleanup_stdio+0x38>)
   136cc:	4299      	cmp	r1, r3
   136ce:	d002      	beq.n	136d6 <cleanup_stdio+0x1e>
   136d0:	4620      	mov	r0, r4
   136d2:	f7ff ff4f 	bl	13574 <_fflush_r>
   136d6:	68e1      	ldr	r1, [r4, #12]
   136d8:	4b06      	ldr	r3, [pc, #24]	@ (136f4 <cleanup_stdio+0x3c>)
   136da:	4299      	cmp	r1, r3
   136dc:	d004      	beq.n	136e8 <cleanup_stdio+0x30>
   136de:	4620      	mov	r0, r4
   136e0:	e8bd 4010 	ldmia.w	sp!, {r4, lr}
   136e4:	f7ff bf46 	b.w	13574 <_fflush_r>
   136e8:	bd10      	pop	{r4, pc}
   136ea:	bf00      	nop
   136ec:	00014ba8 	andeq	r4, r1, r8, lsr #23
   136f0:	00014c10 	andeq	r4, r1, r0, lsl ip
   136f4:	00014c78 	andeq	r4, r1, r8, ror ip

Disassembly of section .text.__fp_lock:

000136f8 <__fp_lock>:
   136f8:	b508      	push	{r3, lr}
   136fa:	6e4b      	ldr	r3, [r1, #100]	@ 0x64
   136fc:	07da      	lsls	r2, r3, #31
   136fe:	d405      	bmi.n	1370c <__fp_lock+0x14>
   13700:	898b      	ldrh	r3, [r1, #12]
   13702:	059b      	lsls	r3, r3, #22
   13704:	d402      	bmi.n	1370c <__fp_lock+0x14>
   13706:	6d88      	ldr	r0, [r1, #88]	@ 0x58
   13708:	f7ff fc1b 	bl	12f42 <__retarget_lock_acquire_recursive>
   1370c:	2000      	movs	r0, #0
   1370e:	bd08      	pop	{r3, pc}

Disassembly of section .text.__fp_unlock:

00013710 <__fp_unlock>:
   13710:	b508      	push	{r3, lr}
   13712:	6e4b      	ldr	r3, [r1, #100]	@ 0x64
   13714:	07da      	lsls	r2, r3, #31
   13716:	d405      	bmi.n	13724 <__fp_unlock+0x14>
   13718:	898b      	ldrh	r3, [r1, #12]
   1371a:	059b      	lsls	r3, r3, #22
   1371c:	d402      	bmi.n	13724 <__fp_unlock+0x14>
   1371e:	6d88      	ldr	r0, [r1, #88]	@ 0x58
   13720:	f7ff fc15 	bl	12f4e <__retarget_lock_release_recursive>
   13724:	2000      	movs	r0, #0
   13726:	bd08      	pop	{r3, pc}

Disassembly of section .text.global_stdio_init.part.0:

00013728 <global_stdio_init.part.0>:
   13728:	b510      	push	{r4, lr}
   1372a:	4b0b      	ldr	r3, [pc, #44]	@ (13758 <global_stdio_init.part.0+0x30>)
   1372c:	4c0b      	ldr	r4, [pc, #44]	@ (1375c <global_stdio_init.part.0+0x34>)
   1372e:	4a0c      	ldr	r2, [pc, #48]	@ (13760 <global_stdio_init.part.0+0x38>)
   13730:	601a      	str	r2, [r3, #0]
   13732:	4620      	mov	r0, r4
   13734:	2200      	movs	r2, #0
   13736:	2104      	movs	r1, #4
   13738:	f7ff ff7c 	bl	13634 <std>
   1373c:	f104 0068 	add.w	r0, r4, #104	@ 0x68
   13740:	2201      	movs	r2, #1
   13742:	2109      	movs	r1, #9
   13744:	f7ff ff76 	bl	13634 <std>
   13748:	f104 00d0 	add.w	r0, r4, #208	@ 0xd0
   1374c:	2202      	movs	r2, #2
   1374e:	e8bd 4010 	ldmia.w	sp!, {r4, lr}
   13752:	2112      	movs	r1, #18
   13754:	f7ff bf6e 	b.w	13634 <std>
   13758:	00014ce0 	andeq	r4, r1, r0, ror #25
   1375c:	00014ba8 	andeq	r4, r1, r8, lsr #23
   13760:	000136a1 	andeq	r3, r1, r1, lsr #13

Disassembly of section .text.__sfp_lock_acquire:

00013764 <__sfp_lock_acquire>:
   13764:	4801      	ldr	r0, [pc, #4]	@ (1376c <__sfp_lock_acquire+0x8>)
   13766:	f7ff bbec 	b.w	12f42 <__retarget_lock_acquire_recursive>
   1376a:	bf00      	nop
   1376c:	00014b9f 	muleq	r1, pc, fp	@ <UNPREDICTABLE>

Disassembly of section .text.__sfp_lock_release:

00013770 <__sfp_lock_release>:
   13770:	4801      	ldr	r0, [pc, #4]	@ (13778 <__sfp_lock_release+0x8>)
   13772:	f7ff bbec 	b.w	12f4e <__retarget_lock_release_recursive>
   13776:	bf00      	nop
   13778:	00014b9f 	muleq	r1, pc, fp	@ <UNPREDICTABLE>

Disassembly of section .text.__sfp:

0001377c <__sfp>:
   1377c:	b5f8      	push	{r3, r4, r5, r6, r7, lr}
   1377e:	4607      	mov	r7, r0
   13780:	f7ff fff0 	bl	13764 <__sfp_lock_acquire>
   13784:	4b23      	ldr	r3, [pc, #140]	@ (13814 <__sfp+0x98>)
   13786:	681b      	ldr	r3, [r3, #0]
   13788:	b90b      	cbnz	r3, 1378e <__sfp+0x12>
   1378a:	f7ff ffcd 	bl	13728 <global_stdio_init.part.0>
   1378e:	4e22      	ldr	r6, [pc, #136]	@ (13818 <__sfp+0x9c>)
   13790:	e9d6 3401 	ldrd	r3, r4, [r6, #4]
   13794:	3b01      	subs	r3, #1
   13796:	d50f      	bpl.n	137b8 <__sfp+0x3c>
   13798:	6835      	ldr	r5, [r6, #0]
   1379a:	2d00      	cmp	r5, #0
   1379c:	d137      	bne.n	1380e <__sfp+0x92>
   1379e:	f44f 71d6 	mov.w	r1, #428	@ 0x1ac
   137a2:	4638      	mov	r0, r7
   137a4:	f7fe fdbc 	bl	12320 <_malloc_r>
   137a8:	4604      	mov	r4, r0
   137aa:	bb28      	cbnz	r0, 137f8 <__sfp+0x7c>
   137ac:	6030      	str	r0, [r6, #0]
   137ae:	f7ff ffdf 	bl	13770 <__sfp_lock_release>
   137b2:	230c      	movs	r3, #12
   137b4:	603b      	str	r3, [r7, #0]
   137b6:	e01b      	b.n	137f0 <__sfp+0x74>
   137b8:	f9b4 500c 	ldrsh.w	r5, [r4, #12]
   137bc:	b9d5      	cbnz	r5, 137f4 <__sfp+0x78>
   137be:	4b17      	ldr	r3, [pc, #92]	@ (1381c <__sfp+0xa0>)
   137c0:	60e3      	str	r3, [r4, #12]
   137c2:	f104 0058 	add.w	r0, r4, #88	@ 0x58
   137c6:	6665      	str	r5, [r4, #100]	@ 0x64
   137c8:	f7ff fbb7 	bl	12f3a <__retarget_lock_init_recursive>
   137cc:	f7ff ffd0 	bl	13770 <__sfp_lock_release>
   137d0:	e9c4 5501 	strd	r5, r5, [r4, #4]
   137d4:	e9c4 5504 	strd	r5, r5, [r4, #16]
   137d8:	6025      	str	r5, [r4, #0]
   137da:	61a5      	str	r5, [r4, #24]
   137dc:	2208      	movs	r2, #8
   137de:	4629      	mov	r1, r5
   137e0:	f104 005c 	add.w	r0, r4, #92	@ 0x5c
   137e4:	f7ff fb56 	bl	12e94 <memset>
   137e8:	e9c4 550d 	strd	r5, r5, [r4, #52]	@ 0x34
   137ec:	e9c4 5512 	strd	r5, r5, [r4, #72]	@ 0x48
   137f0:	4620      	mov	r0, r4
   137f2:	bdf8      	pop	{r3, r4, r5, r6, r7, pc}
   137f4:	3468      	adds	r4, #104	@ 0x68
   137f6:	e7cd      	b.n	13794 <__sfp+0x18>
   137f8:	2304      	movs	r3, #4
   137fa:	6005      	str	r5, [r0, #0]
   137fc:	6043      	str	r3, [r0, #4]
   137fe:	300c      	adds	r0, #12
   13800:	60a0      	str	r0, [r4, #8]
   13802:	f44f 72d0 	mov.w	r2, #416	@ 0x1a0
   13806:	4629      	mov	r1, r5
   13808:	f7ff fb44 	bl	12e94 <memset>
   1380c:	6034      	str	r4, [r6, #0]
   1380e:	6836      	ldr	r6, [r6, #0]
   13810:	e7be      	b.n	13790 <__sfp+0x14>
   13812:	bf00      	nop
   13814:	00014ce0 	andeq	r4, r1, r0, ror #25
   13818:	00014680 	andeq	r4, r1, r0, lsl #13
   1381c:	ffff0001 			@ <UNDEFINED> instruction: 0xffff0001

Disassembly of section .text.__sinit:

00013820 <__sinit>:
   13820:	b510      	push	{r4, lr}
   13822:	4604      	mov	r4, r0
   13824:	f7ff ff9e 	bl	13764 <__sfp_lock_acquire>
   13828:	6a23      	ldr	r3, [r4, #32]
   1382a:	b11b      	cbz	r3, 13834 <__sinit+0x14>
   1382c:	e8bd 4010 	ldmia.w	sp!, {r4, lr}
   13830:	f7ff bf9e 	b.w	13770 <__sfp_lock_release>
   13834:	4b04      	ldr	r3, [pc, #16]	@ (13848 <__sinit+0x28>)
   13836:	6223      	str	r3, [r4, #32]
   13838:	4b04      	ldr	r3, [pc, #16]	@ (1384c <__sinit+0x2c>)
   1383a:	681b      	ldr	r3, [r3, #0]
   1383c:	2b00      	cmp	r3, #0
   1383e:	d1f5      	bne.n	1382c <__sinit+0xc>
   13840:	f7ff ff72 	bl	13728 <global_stdio_init.part.0>
   13844:	e7f2      	b.n	1382c <__sinit+0xc>
   13846:	bf00      	nop
   13848:	000136b9 			@ <UNDEFINED> instruction: 0x000136b9
   1384c:	00014ce0 	andeq	r4, r1, r0, ror #25

Disassembly of section .text.__fp_lock_all:

00013850 <__fp_lock_all>:
   13850:	b508      	push	{r3, lr}
   13852:	f7ff ff87 	bl	13764 <__sfp_lock_acquire>
   13856:	e8bd 4008 	ldmia.w	sp!, {r3, lr}
   1385a:	4a02      	ldr	r2, [pc, #8]	@ (13864 <__fp_lock_all+0x14>)
   1385c:	4902      	ldr	r1, [pc, #8]	@ (13868 <__fp_lock_all+0x18>)
   1385e:	2000      	movs	r0, #0
   13860:	f000 b9c8 	b.w	13bf4 <_fwalk_sglue>
   13864:	00014680 	andeq	r4, r1, r0, lsl #13
   13868:	000136f9 	strdeq	r3, [r1], -r9

Disassembly of section .text.__fp_unlock_all:

0001386c <__fp_unlock_all>:
   1386c:	b508      	push	{r3, lr}
   1386e:	4a04      	ldr	r2, [pc, #16]	@ (13880 <__fp_unlock_all+0x14>)
   13870:	4904      	ldr	r1, [pc, #16]	@ (13884 <__fp_unlock_all+0x18>)
   13872:	2000      	movs	r0, #0
   13874:	f000 f9be 	bl	13bf4 <_fwalk_sglue>
   13878:	e8bd 4008 	ldmia.w	sp!, {r3, lr}
   1387c:	f7ff bf78 	b.w	13770 <__sfp_lock_release>
   13880:	00014680 	andeq	r4, r1, r0, lsl #13
   13884:	00013711 	andeq	r3, r1, r1, lsl r7

Disassembly of section .text.__sread:

00013888 <__sread>:
   13888:	b510      	push	{r4, lr}
   1388a:	460c      	mov	r4, r1
   1388c:	f9b1 100e 	ldrsh.w	r1, [r1, #14]
   13890:	f000 f840 	bl	13914 <_read_r>
   13894:	2800      	cmp	r0, #0
   13896:	bfab      	itete	ge
   13898:	6d63      	ldrge	r3, [r4, #84]	@ 0x54
   1389a:	89a3      	ldrhlt	r3, [r4, #12]
   1389c:	181b      	addge	r3, r3, r0
   1389e:	f423 5380 	biclt.w	r3, r3, #4096	@ 0x1000
   138a2:	bfac      	ite	ge
   138a4:	6563      	strge	r3, [r4, #84]	@ 0x54
   138a6:	81a3      	strhlt	r3, [r4, #12]
   138a8:	bd10      	pop	{r4, pc}

Disassembly of section .text.__seofread:

000138aa <__seofread>:
   138aa:	2000      	movs	r0, #0
   138ac:	4770      	bx	lr

Disassembly of section .text.__swrite:

000138ae <__swrite>:
   138ae:	e92d 41f0 	stmdb	sp!, {r4, r5, r6, r7, r8, lr}
   138b2:	461f      	mov	r7, r3
   138b4:	898b      	ldrh	r3, [r1, #12]
   138b6:	05db      	lsls	r3, r3, #23
   138b8:	4605      	mov	r5, r0
   138ba:	460c      	mov	r4, r1
   138bc:	4616      	mov	r6, r2
   138be:	d505      	bpl.n	138cc <__swrite+0x1e>
   138c0:	f9b1 100e 	ldrsh.w	r1, [r1, #14]
   138c4:	2302      	movs	r3, #2
   138c6:	2200      	movs	r2, #0
   138c8:	f000 fb24 	bl	13f14 <_lseek_r>
   138cc:	89a3      	ldrh	r3, [r4, #12]
   138ce:	f9b4 100e 	ldrsh.w	r1, [r4, #14]
   138d2:	f423 5380 	bic.w	r3, r3, #4096	@ 0x1000
   138d6:	81a3      	strh	r3, [r4, #12]
   138d8:	4632      	mov	r2, r6
   138da:	463b      	mov	r3, r7
   138dc:	4628      	mov	r0, r5
   138de:	e8bd 41f0 	ldmia.w	sp!, {r4, r5, r6, r7, r8, lr}
   138e2:	f000 b829 	b.w	13938 <_write_r>

Disassembly of section .text.__sseek:

000138e6 <__sseek>:
   138e6:	b510      	push	{r4, lr}
   138e8:	460c      	mov	r4, r1
   138ea:	f9b1 100e 	ldrsh.w	r1, [r1, #14]
   138ee:	f000 fb11 	bl	13f14 <_lseek_r>
   138f2:	1c43      	adds	r3, r0, #1
   138f4:	89a3      	ldrh	r3, [r4, #12]
   138f6:	bf15      	itete	ne
   138f8:	6560      	strne	r0, [r4, #84]	@ 0x54
   138fa:	f423 5380 	biceq.w	r3, r3, #4096	@ 0x1000
   138fe:	f443 5380 	orrne.w	r3, r3, #4096	@ 0x1000
   13902:	81a3      	strheq	r3, [r4, #12]
   13904:	bf18      	it	ne
   13906:	81a3      	strhne	r3, [r4, #12]
   13908:	bd10      	pop	{r4, pc}

Disassembly of section .text.__sclose:

0001390a <__sclose>:
   1390a:	f9b1 100e 	ldrsh.w	r1, [r1, #14]
   1390e:	f000 ba39 	b.w	13d84 <_close_r>

Disassembly of section .text._read_r:

00013914 <_read_r>:
   13914:	b538      	push	{r3, r4, r5, lr}
   13916:	4d07      	ldr	r5, [pc, #28]	@ (13934 <_read_r+0x20>)
   13918:	4604      	mov	r4, r0
   1391a:	4608      	mov	r0, r1
   1391c:	4611      	mov	r1, r2
   1391e:	2200      	movs	r2, #0
   13920:	602a      	str	r2, [r5, #0]
   13922:	461a      	mov	r2, r3
   13924:	f000 fb74 	bl	14010 <_read>
   13928:	1c43      	adds	r3, r0, #1
   1392a:	d102      	bne.n	13932 <_read_r+0x1e>
   1392c:	682b      	ldr	r3, [r5, #0]
   1392e:	b103      	cbz	r3, 13932 <_read_r+0x1e>
   13930:	6023      	str	r3, [r4, #0]
   13932:	bd38      	pop	{r3, r4, r5, pc}
   13934:	00014ba4 	andeq	r4, r1, r4, lsr #23

Disassembly of section .text._write_r:

00013938 <_write_r>:
   13938:	b538      	push	{r3, r4, r5, lr}
   1393a:	4d07      	ldr	r5, [pc, #28]	@ (13958 <_write_r+0x20>)
   1393c:	4604      	mov	r4, r0
   1393e:	4608      	mov	r0, r1
   13940:	4611      	mov	r1, r2
   13942:	2200      	movs	r2, #0
   13944:	602a      	str	r2, [r5, #0]
   13946:	461a      	mov	r2, r3
   13948:	f7fc fbe3 	bl	10112 <_write>
   1394c:	1c43      	adds	r3, r0, #1
   1394e:	d102      	bne.n	13956 <_write_r+0x1e>
   13950:	682b      	ldr	r3, [r5, #0]
   13952:	b103      	cbz	r3, 13956 <_write_r+0x1e>
   13954:	6023      	str	r3, [r4, #0]
   13956:	bd38      	pop	{r3, r4, r5, pc}
   13958:	00014ba4 	andeq	r4, r1, r4, lsr #23

Disassembly of section .text.__sfvwrite_r:

0001395c <__sfvwrite_r>:
   1395c:	6893      	ldr	r3, [r2, #8]
   1395e:	e92d 4ff7 	stmdb	sp!, {r0, r1, r2, r4, r5, r6, r7, r8, r9, sl, fp, lr}
   13962:	4606      	mov	r6, r0
   13964:	460c      	mov	r4, r1
   13966:	4691      	mov	r9, r2
   13968:	b91b      	cbnz	r3, 13972 <__sfvwrite_r+0x16>
   1396a:	2000      	movs	r0, #0
   1396c:	b003      	add	sp, #12
   1396e:	e8bd 8ff0 	ldmia.w	sp!, {r4, r5, r6, r7, r8, r9, sl, fp, pc}
   13972:	898b      	ldrh	r3, [r1, #12]
   13974:	0718      	lsls	r0, r3, #28
   13976:	d550      	bpl.n	13a1a <__sfvwrite_r+0xbe>
   13978:	690b      	ldr	r3, [r1, #16]
   1397a:	2b00      	cmp	r3, #0
   1397c:	d04d      	beq.n	13a1a <__sfvwrite_r+0xbe>
   1397e:	f9b4 300c 	ldrsh.w	r3, [r4, #12]
   13982:	f8d9 8000 	ldr.w	r8, [r9]
   13986:	f013 0702 	ands.w	r7, r3, #2
   1398a:	d16b      	bne.n	13a64 <__sfvwrite_r+0x108>
   1398c:	f013 0301 	ands.w	r3, r3, #1
   13990:	f000 809c 	beq.w	13acc <__sfvwrite_r+0x170>
   13994:	4638      	mov	r0, r7
   13996:	46ba      	mov	sl, r7
   13998:	46bb      	mov	fp, r7
   1399a:	f1bb 0f00 	cmp.w	fp, #0
   1399e:	f000 8103 	beq.w	13ba8 <__sfvwrite_r+0x24c>
   139a2:	b950      	cbnz	r0, 139ba <__sfvwrite_r+0x5e>
   139a4:	465a      	mov	r2, fp
   139a6:	210a      	movs	r1, #10
   139a8:	4650      	mov	r0, sl
   139aa:	f7fc fb41 	bl	10030 <memchr>
   139ae:	2800      	cmp	r0, #0
   139b0:	f000 8100 	beq.w	13bb4 <__sfvwrite_r+0x258>
   139b4:	3001      	adds	r0, #1
   139b6:	eba0 070a 	sub.w	r7, r0, sl
   139ba:	6820      	ldr	r0, [r4, #0]
   139bc:	6921      	ldr	r1, [r4, #16]
   139be:	68a5      	ldr	r5, [r4, #8]
   139c0:	6963      	ldr	r3, [r4, #20]
   139c2:	455f      	cmp	r7, fp
   139c4:	463a      	mov	r2, r7
   139c6:	bf28      	it	cs
   139c8:	465a      	movcs	r2, fp
   139ca:	4288      	cmp	r0, r1
   139cc:	f240 80f5 	bls.w	13bba <__sfvwrite_r+0x25e>
   139d0:	441d      	add	r5, r3
   139d2:	42aa      	cmp	r2, r5
   139d4:	f340 80f1 	ble.w	13bba <__sfvwrite_r+0x25e>
   139d8:	4651      	mov	r1, sl
   139da:	462a      	mov	r2, r5
   139dc:	f000 f928 	bl	13c30 <memmove>
   139e0:	6823      	ldr	r3, [r4, #0]
   139e2:	442b      	add	r3, r5
   139e4:	6023      	str	r3, [r4, #0]
   139e6:	4621      	mov	r1, r4
   139e8:	4630      	mov	r0, r6
   139ea:	f7ff fdc3 	bl	13574 <_fflush_r>
   139ee:	2800      	cmp	r0, #0
   139f0:	d167      	bne.n	13ac2 <__sfvwrite_r+0x166>
   139f2:	1b7f      	subs	r7, r7, r5
   139f4:	f040 80f9 	bne.w	13bea <__sfvwrite_r+0x28e>
   139f8:	4621      	mov	r1, r4
   139fa:	4630      	mov	r0, r6
   139fc:	f7ff fdba 	bl	13574 <_fflush_r>
   13a00:	2800      	cmp	r0, #0
   13a02:	d15e      	bne.n	13ac2 <__sfvwrite_r+0x166>
   13a04:	f8d9 3008 	ldr.w	r3, [r9, #8]
   13a08:	1b5b      	subs	r3, r3, r5
   13a0a:	44aa      	add	sl, r5
   13a0c:	ebab 0b05 	sub.w	fp, fp, r5
   13a10:	f8c9 3008 	str.w	r3, [r9, #8]
   13a14:	2b00      	cmp	r3, #0
   13a16:	d1c0      	bne.n	1399a <__sfvwrite_r+0x3e>
   13a18:	e7a7      	b.n	1396a <__sfvwrite_r+0xe>
   13a1a:	4621      	mov	r1, r4
   13a1c:	4630      	mov	r0, r6
   13a1e:	f7ff fc61 	bl	132e4 <__swsetup_r>
   13a22:	2800      	cmp	r0, #0
   13a24:	d0ab      	beq.n	1397e <__sfvwrite_r+0x22>
   13a26:	f04f 30ff 	mov.w	r0, #4294967295	@ 0xffffffff
   13a2a:	e79f      	b.n	1396c <__sfvwrite_r+0x10>
   13a2c:	e9d8 a500 	ldrd	sl, r5, [r8]
   13a30:	f108 0808 	add.w	r8, r8, #8
   13a34:	f8d4 b028 	ldr.w	fp, [r4, #40]	@ 0x28
   13a38:	6a21      	ldr	r1, [r4, #32]
   13a3a:	2d00      	cmp	r5, #0
   13a3c:	d0f6      	beq.n	13a2c <__sfvwrite_r+0xd0>
   13a3e:	42bd      	cmp	r5, r7
   13a40:	462b      	mov	r3, r5
   13a42:	4652      	mov	r2, sl
   13a44:	bf28      	it	cs
   13a46:	463b      	movcs	r3, r7
   13a48:	4630      	mov	r0, r6
   13a4a:	47d8      	blx	fp
   13a4c:	2800      	cmp	r0, #0
   13a4e:	dd38      	ble.n	13ac2 <__sfvwrite_r+0x166>
   13a50:	f8d9 3008 	ldr.w	r3, [r9, #8]
   13a54:	1a1b      	subs	r3, r3, r0
   13a56:	4482      	add	sl, r0
   13a58:	1a2d      	subs	r5, r5, r0
   13a5a:	f8c9 3008 	str.w	r3, [r9, #8]
   13a5e:	2b00      	cmp	r3, #0
   13a60:	d1e8      	bne.n	13a34 <__sfvwrite_r+0xd8>
   13a62:	e782      	b.n	1396a <__sfvwrite_r+0xe>
   13a64:	f04f 0a00 	mov.w	sl, #0
   13a68:	4f61      	ldr	r7, [pc, #388]	@ (13bf0 <__sfvwrite_r+0x294>)
   13a6a:	4655      	mov	r5, sl
   13a6c:	e7e2      	b.n	13a34 <__sfvwrite_r+0xd8>
   13a6e:	e9d8 7a00 	ldrd	r7, sl, [r8]
   13a72:	f108 0808 	add.w	r8, r8, #8
   13a76:	f9b4 300c 	ldrsh.w	r3, [r4, #12]
   13a7a:	6820      	ldr	r0, [r4, #0]
   13a7c:	68a2      	ldr	r2, [r4, #8]
   13a7e:	f1ba 0f00 	cmp.w	sl, #0
   13a82:	d0f4      	beq.n	13a6e <__sfvwrite_r+0x112>
   13a84:	0599      	lsls	r1, r3, #22
   13a86:	d563      	bpl.n	13b50 <__sfvwrite_r+0x1f4>
   13a88:	4552      	cmp	r2, sl
   13a8a:	d836      	bhi.n	13afa <__sfvwrite_r+0x19e>
   13a8c:	f413 6f90 	tst.w	r3, #1152	@ 0x480
   13a90:	d033      	beq.n	13afa <__sfvwrite_r+0x19e>
   13a92:	6921      	ldr	r1, [r4, #16]
   13a94:	6965      	ldr	r5, [r4, #20]
   13a96:	eba0 0b01 	sub.w	fp, r0, r1
   13a9a:	eb05 0545 	add.w	r5, r5, r5, lsl #1
   13a9e:	eb05 75d5 	add.w	r5, r5, r5, lsr #31
   13aa2:	f10b 0201 	add.w	r2, fp, #1
   13aa6:	106d      	asrs	r5, r5, #1
   13aa8:	4452      	add	r2, sl
   13aaa:	4295      	cmp	r5, r2
   13aac:	bf38      	it	cc
   13aae:	4615      	movcc	r5, r2
   13ab0:	055b      	lsls	r3, r3, #21
   13ab2:	d53d      	bpl.n	13b30 <__sfvwrite_r+0x1d4>
   13ab4:	4629      	mov	r1, r5
   13ab6:	4630      	mov	r0, r6
   13ab8:	f7fe fc32 	bl	12320 <_malloc_r>
   13abc:	b948      	cbnz	r0, 13ad2 <__sfvwrite_r+0x176>
   13abe:	230c      	movs	r3, #12
   13ac0:	6033      	str	r3, [r6, #0]
   13ac2:	89a3      	ldrh	r3, [r4, #12]
   13ac4:	f043 0340 	orr.w	r3, r3, #64	@ 0x40
   13ac8:	81a3      	strh	r3, [r4, #12]
   13aca:	e7ac      	b.n	13a26 <__sfvwrite_r+0xca>
   13acc:	461f      	mov	r7, r3
   13ace:	469a      	mov	sl, r3
   13ad0:	e7d1      	b.n	13a76 <__sfvwrite_r+0x11a>
   13ad2:	465a      	mov	r2, fp
   13ad4:	6921      	ldr	r1, [r4, #16]
   13ad6:	9001      	str	r0, [sp, #4]
   13ad8:	f7fe fbe2 	bl	122a0 <memcpy>
   13adc:	89a2      	ldrh	r2, [r4, #12]
   13ade:	9b01      	ldr	r3, [sp, #4]
   13ae0:	f422 6290 	bic.w	r2, r2, #1152	@ 0x480
   13ae4:	f042 0280 	orr.w	r2, r2, #128	@ 0x80
   13ae8:	81a2      	strh	r2, [r4, #12]
   13aea:	6123      	str	r3, [r4, #16]
   13aec:	6165      	str	r5, [r4, #20]
   13aee:	445b      	add	r3, fp
   13af0:	eba5 050b 	sub.w	r5, r5, fp
   13af4:	6023      	str	r3, [r4, #0]
   13af6:	4652      	mov	r2, sl
   13af8:	60a5      	str	r5, [r4, #8]
   13afa:	4552      	cmp	r2, sl
   13afc:	bf28      	it	cs
   13afe:	4652      	movcs	r2, sl
   13b00:	6820      	ldr	r0, [r4, #0]
   13b02:	9201      	str	r2, [sp, #4]
   13b04:	4639      	mov	r1, r7
   13b06:	f000 f893 	bl	13c30 <memmove>
   13b0a:	68a3      	ldr	r3, [r4, #8]
   13b0c:	9a01      	ldr	r2, [sp, #4]
   13b0e:	1a9b      	subs	r3, r3, r2
   13b10:	60a3      	str	r3, [r4, #8]
   13b12:	6823      	ldr	r3, [r4, #0]
   13b14:	4413      	add	r3, r2
   13b16:	4655      	mov	r5, sl
   13b18:	6023      	str	r3, [r4, #0]
   13b1a:	f8d9 3008 	ldr.w	r3, [r9, #8]
   13b1e:	1b5b      	subs	r3, r3, r5
   13b20:	442f      	add	r7, r5
   13b22:	ebaa 0a05 	sub.w	sl, sl, r5
   13b26:	f8c9 3008 	str.w	r3, [r9, #8]
   13b2a:	2b00      	cmp	r3, #0
   13b2c:	d1a3      	bne.n	13a76 <__sfvwrite_r+0x11a>
   13b2e:	e71c      	b.n	1396a <__sfvwrite_r+0xe>
   13b30:	462a      	mov	r2, r5
   13b32:	4630      	mov	r0, r6
   13b34:	f000 f896 	bl	13c64 <_realloc_r>
   13b38:	4603      	mov	r3, r0
   13b3a:	2800      	cmp	r0, #0
   13b3c:	d1d5      	bne.n	13aea <__sfvwrite_r+0x18e>
   13b3e:	6921      	ldr	r1, [r4, #16]
   13b40:	4630      	mov	r0, r6
   13b42:	f7ff f9af 	bl	12ea4 <_free_r>
   13b46:	89a3      	ldrh	r3, [r4, #12]
   13b48:	f023 0380 	bic.w	r3, r3, #128	@ 0x80
   13b4c:	81a3      	strh	r3, [r4, #12]
   13b4e:	e7b6      	b.n	13abe <__sfvwrite_r+0x162>
   13b50:	6923      	ldr	r3, [r4, #16]
   13b52:	4283      	cmp	r3, r0
   13b54:	d302      	bcc.n	13b5c <__sfvwrite_r+0x200>
   13b56:	6961      	ldr	r1, [r4, #20]
   13b58:	4551      	cmp	r1, sl
   13b5a:	d915      	bls.n	13b88 <__sfvwrite_r+0x22c>
   13b5c:	4552      	cmp	r2, sl
   13b5e:	bf28      	it	cs
   13b60:	4652      	movcs	r2, sl
   13b62:	4639      	mov	r1, r7
   13b64:	4615      	mov	r5, r2
   13b66:	f000 f863 	bl	13c30 <memmove>
   13b6a:	68a3      	ldr	r3, [r4, #8]
   13b6c:	6822      	ldr	r2, [r4, #0]
   13b6e:	1b5b      	subs	r3, r3, r5
   13b70:	442a      	add	r2, r5
   13b72:	60a3      	str	r3, [r4, #8]
   13b74:	6022      	str	r2, [r4, #0]
   13b76:	2b00      	cmp	r3, #0
   13b78:	d1cf      	bne.n	13b1a <__sfvwrite_r+0x1be>
   13b7a:	4621      	mov	r1, r4
   13b7c:	4630      	mov	r0, r6
   13b7e:	f7ff fcf9 	bl	13574 <_fflush_r>
   13b82:	2800      	cmp	r0, #0
   13b84:	d0c9      	beq.n	13b1a <__sfvwrite_r+0x1be>
   13b86:	e79c      	b.n	13ac2 <__sfvwrite_r+0x166>
   13b88:	f06f 4300 	mvn.w	r3, #2147483648	@ 0x80000000
   13b8c:	4553      	cmp	r3, sl
   13b8e:	bf28      	it	cs
   13b90:	4653      	movcs	r3, sl
   13b92:	6aa5      	ldr	r5, [r4, #40]	@ 0x28
   13b94:	fb93 f3f1 	sdiv	r3, r3, r1
   13b98:	463a      	mov	r2, r7
   13b9a:	434b      	muls	r3, r1
   13b9c:	4630      	mov	r0, r6
   13b9e:	6a21      	ldr	r1, [r4, #32]
   13ba0:	47a8      	blx	r5
   13ba2:	1e05      	subs	r5, r0, #0
   13ba4:	dcb9      	bgt.n	13b1a <__sfvwrite_r+0x1be>
   13ba6:	e78c      	b.n	13ac2 <__sfvwrite_r+0x166>
   13ba8:	e9d8 ab00 	ldrd	sl, fp, [r8]
   13bac:	2000      	movs	r0, #0
   13bae:	f108 0808 	add.w	r8, r8, #8
   13bb2:	e6f2      	b.n	1399a <__sfvwrite_r+0x3e>
   13bb4:	f10b 0701 	add.w	r7, fp, #1
   13bb8:	e6ff      	b.n	139ba <__sfvwrite_r+0x5e>
   13bba:	4293      	cmp	r3, r2
   13bbc:	dc08      	bgt.n	13bd0 <__sfvwrite_r+0x274>
   13bbe:	6aa5      	ldr	r5, [r4, #40]	@ 0x28
   13bc0:	6a21      	ldr	r1, [r4, #32]
   13bc2:	4652      	mov	r2, sl
   13bc4:	4630      	mov	r0, r6
   13bc6:	47a8      	blx	r5
   13bc8:	1e05      	subs	r5, r0, #0
   13bca:	f73f af12 	bgt.w	139f2 <__sfvwrite_r+0x96>
   13bce:	e778      	b.n	13ac2 <__sfvwrite_r+0x166>
   13bd0:	4651      	mov	r1, sl
   13bd2:	9201      	str	r2, [sp, #4]
   13bd4:	f000 f82c 	bl	13c30 <memmove>
   13bd8:	9a01      	ldr	r2, [sp, #4]
   13bda:	68a3      	ldr	r3, [r4, #8]
   13bdc:	1a9b      	subs	r3, r3, r2
   13bde:	60a3      	str	r3, [r4, #8]
   13be0:	6823      	ldr	r3, [r4, #0]
   13be2:	4413      	add	r3, r2
   13be4:	6023      	str	r3, [r4, #0]
   13be6:	4615      	mov	r5, r2
   13be8:	e703      	b.n	139f2 <__sfvwrite_r+0x96>
   13bea:	2001      	movs	r0, #1
   13bec:	e70a      	b.n	13a04 <__sfvwrite_r+0xa8>
   13bee:	bf00      	nop
   13bf0:	7ffffc00 	svcvc	0x00fffc00

Disassembly of section .text._fwalk_sglue:

00013bf4 <_fwalk_sglue>:
   13bf4:	e92d 43f8 	stmdb	sp!, {r3, r4, r5, r6, r7, r8, r9, lr}
   13bf8:	4607      	mov	r7, r0
   13bfa:	4688      	mov	r8, r1
   13bfc:	4614      	mov	r4, r2
   13bfe:	2600      	movs	r6, #0
   13c00:	e9d4 9501 	ldrd	r9, r5, [r4, #4]
   13c04:	f1b9 0901 	subs.w	r9, r9, #1
   13c08:	d505      	bpl.n	13c16 <_fwalk_sglue+0x22>
   13c0a:	6824      	ldr	r4, [r4, #0]
   13c0c:	2c00      	cmp	r4, #0
   13c0e:	d1f7      	bne.n	13c00 <_fwalk_sglue+0xc>
   13c10:	4630      	mov	r0, r6
   13c12:	e8bd 83f8 	ldmia.w	sp!, {r3, r4, r5, r6, r7, r8, r9, pc}
   13c16:	89ab      	ldrh	r3, [r5, #12]
   13c18:	2b01      	cmp	r3, #1
   13c1a:	d907      	bls.n	13c2c <_fwalk_sglue+0x38>
   13c1c:	f9b5 300e 	ldrsh.w	r3, [r5, #14]
   13c20:	3301      	adds	r3, #1
   13c22:	d003      	beq.n	13c2c <_fwalk_sglue+0x38>
   13c24:	4629      	mov	r1, r5
   13c26:	4638      	mov	r0, r7
   13c28:	47c0      	blx	r8
   13c2a:	4306      	orrs	r6, r0
   13c2c:	3568      	adds	r5, #104	@ 0x68
   13c2e:	e7e9      	b.n	13c04 <_fwalk_sglue+0x10>

Disassembly of section .text.memmove:

00013c30 <memmove>:
   13c30:	4288      	cmp	r0, r1
   13c32:	b510      	push	{r4, lr}
   13c34:	eb01 0402 	add.w	r4, r1, r2
   13c38:	d902      	bls.n	13c40 <memmove+0x10>
   13c3a:	4284      	cmp	r4, r0
   13c3c:	4623      	mov	r3, r4
   13c3e:	d807      	bhi.n	13c50 <memmove+0x20>
   13c40:	1e43      	subs	r3, r0, #1
   13c42:	42a1      	cmp	r1, r4
   13c44:	d008      	beq.n	13c58 <memmove+0x28>
   13c46:	f811 2b01 	ldrb.w	r2, [r1], #1
   13c4a:	f803 2f01 	strb.w	r2, [r3, #1]!
   13c4e:	e7f8      	b.n	13c42 <memmove+0x12>
   13c50:	4402      	add	r2, r0
   13c52:	4601      	mov	r1, r0
   13c54:	428a      	cmp	r2, r1
   13c56:	d100      	bne.n	13c5a <memmove+0x2a>
   13c58:	bd10      	pop	{r4, pc}
   13c5a:	f813 4d01 	ldrb.w	r4, [r3, #-1]!
   13c5e:	f802 4d01 	strb.w	r4, [r2, #-1]!
   13c62:	e7f7      	b.n	13c54 <memmove+0x24>

Disassembly of section .text._realloc_r:

00013c64 <_realloc_r>:
   13c64:	e92d 41f0 	stmdb	sp!, {r4, r5, r6, r7, r8, lr}
   13c68:	4607      	mov	r7, r0
   13c6a:	4614      	mov	r4, r2
   13c6c:	460d      	mov	r5, r1
   13c6e:	b921      	cbnz	r1, 13c7a <_realloc_r+0x16>
   13c70:	e8bd 41f0 	ldmia.w	sp!, {r4, r5, r6, r7, r8, lr}
   13c74:	4611      	mov	r1, r2
   13c76:	f7fe bb53 	b.w	12320 <_malloc_r>
   13c7a:	b92a      	cbnz	r2, 13c88 <_realloc_r+0x24>
   13c7c:	f7ff f912 	bl	12ea4 <_free_r>
   13c80:	4625      	mov	r5, r4
   13c82:	4628      	mov	r0, r5
   13c84:	e8bd 81f0 	ldmia.w	sp!, {r4, r5, r6, r7, r8, pc}
   13c88:	f000 f956 	bl	13f38 <_malloc_usable_size_r>
   13c8c:	4284      	cmp	r4, r0
   13c8e:	4606      	mov	r6, r0
   13c90:	d802      	bhi.n	13c98 <_realloc_r+0x34>
   13c92:	ebb4 0f50 	cmp.w	r4, r0, lsr #1
   13c96:	d8f4      	bhi.n	13c82 <_realloc_r+0x1e>
   13c98:	4621      	mov	r1, r4
   13c9a:	4638      	mov	r0, r7
   13c9c:	f7fe fb40 	bl	12320 <_malloc_r>
   13ca0:	4680      	mov	r8, r0
   13ca2:	b908      	cbnz	r0, 13ca8 <_realloc_r+0x44>
   13ca4:	4645      	mov	r5, r8
   13ca6:	e7ec      	b.n	13c82 <_realloc_r+0x1e>
   13ca8:	42b4      	cmp	r4, r6
   13caa:	4622      	mov	r2, r4
   13cac:	4629      	mov	r1, r5
   13cae:	bf28      	it	cs
   13cb0:	4632      	movcs	r2, r6
   13cb2:	f7fe faf5 	bl	122a0 <memcpy>
   13cb6:	4629      	mov	r1, r5
   13cb8:	4638      	mov	r0, r7
   13cba:	f7ff f8f3 	bl	12ea4 <_free_r>
   13cbe:	e7f1      	b.n	13ca4 <_realloc_r+0x40>

Disassembly of section .text.__swhatbuf_r:

00013cc0 <__swhatbuf_r>:
   13cc0:	b570      	push	{r4, r5, r6, lr}
   13cc2:	460c      	mov	r4, r1
   13cc4:	f9b1 100e 	ldrsh.w	r1, [r1, #14]
   13cc8:	2900      	cmp	r1, #0
   13cca:	b096      	sub	sp, #88	@ 0x58
   13ccc:	4615      	mov	r5, r2
   13cce:	461e      	mov	r6, r3
   13cd0:	da0d      	bge.n	13cee <__swhatbuf_r+0x2e>
   13cd2:	89a3      	ldrh	r3, [r4, #12]
   13cd4:	f013 0f80 	tst.w	r3, #128	@ 0x80
   13cd8:	f04f 0100 	mov.w	r1, #0
   13cdc:	bf14      	ite	ne
   13cde:	2340      	movne	r3, #64	@ 0x40
   13ce0:	f44f 6380 	moveq.w	r3, #1024	@ 0x400
   13ce4:	2000      	movs	r0, #0
   13ce6:	6031      	str	r1, [r6, #0]
   13ce8:	602b      	str	r3, [r5, #0]
   13cea:	b016      	add	sp, #88	@ 0x58
   13cec:	bd70      	pop	{r4, r5, r6, pc}
   13cee:	466a      	mov	r2, sp
   13cf0:	f000 f8ee 	bl	13ed0 <_fstat_r>
   13cf4:	2800      	cmp	r0, #0
   13cf6:	dbec      	blt.n	13cd2 <__swhatbuf_r+0x12>
   13cf8:	9901      	ldr	r1, [sp, #4]
   13cfa:	f401 4170 	and.w	r1, r1, #61440	@ 0xf000
   13cfe:	f5a1 5300 	sub.w	r3, r1, #8192	@ 0x2000
   13d02:	4259      	negs	r1, r3
   13d04:	4159      	adcs	r1, r3
   13d06:	f44f 6380 	mov.w	r3, #1024	@ 0x400
   13d0a:	e7eb      	b.n	13ce4 <__swhatbuf_r+0x24>

Disassembly of section .text.__smakebuf_r:

00013d0c <__smakebuf_r>:
   13d0c:	898b      	ldrh	r3, [r1, #12]
   13d0e:	b5f7      	push	{r0, r1, r2, r4, r5, r6, r7, lr}
   13d10:	079d      	lsls	r5, r3, #30
   13d12:	4606      	mov	r6, r0
   13d14:	460c      	mov	r4, r1
   13d16:	d507      	bpl.n	13d28 <__smakebuf_r+0x1c>
   13d18:	f104 0347 	add.w	r3, r4, #71	@ 0x47
   13d1c:	6023      	str	r3, [r4, #0]
   13d1e:	6123      	str	r3, [r4, #16]
   13d20:	2301      	movs	r3, #1
   13d22:	6163      	str	r3, [r4, #20]
   13d24:	b003      	add	sp, #12
   13d26:	bdf0      	pop	{r4, r5, r6, r7, pc}
   13d28:	ab01      	add	r3, sp, #4
   13d2a:	466a      	mov	r2, sp
   13d2c:	f7ff ffc8 	bl	13cc0 <__swhatbuf_r>
   13d30:	9f00      	ldr	r7, [sp, #0]
   13d32:	4605      	mov	r5, r0
   13d34:	4639      	mov	r1, r7
   13d36:	4630      	mov	r0, r6
   13d38:	f7fe faf2 	bl	12320 <_malloc_r>
   13d3c:	b948      	cbnz	r0, 13d52 <__smakebuf_r+0x46>
   13d3e:	f9b4 300c 	ldrsh.w	r3, [r4, #12]
   13d42:	059a      	lsls	r2, r3, #22
   13d44:	d4ee      	bmi.n	13d24 <__smakebuf_r+0x18>
   13d46:	f023 0303 	bic.w	r3, r3, #3
   13d4a:	f043 0302 	orr.w	r3, r3, #2
   13d4e:	81a3      	strh	r3, [r4, #12]
   13d50:	e7e2      	b.n	13d18 <__smakebuf_r+0xc>
   13d52:	89a3      	ldrh	r3, [r4, #12]
   13d54:	6020      	str	r0, [r4, #0]
   13d56:	f043 0380 	orr.w	r3, r3, #128	@ 0x80
   13d5a:	81a3      	strh	r3, [r4, #12]
   13d5c:	9b01      	ldr	r3, [sp, #4]
   13d5e:	e9c4 0704 	strd	r0, r7, [r4, #16]
   13d62:	b15b      	cbz	r3, 13d7c <__smakebuf_r+0x70>
   13d64:	f9b4 100e 	ldrsh.w	r1, [r4, #14]
   13d68:	4630      	mov	r0, r6
   13d6a:	f000 f8c3 	bl	13ef4 <_isatty_r>
   13d6e:	b128      	cbz	r0, 13d7c <__smakebuf_r+0x70>
   13d70:	89a3      	ldrh	r3, [r4, #12]
