
main.elf:     file format elf32-littlearm


Disassembly of section .boot:

00010000 <_Reset>:
   10000:	e59f3018 	ldr	r3, [pc, #24]	@ 10020 <exit_program+0xc>
   10004:	e1a0d003 	mov	sp, r3
   10008:	e59f1014 	ldr	r1, [pc, #20]	@ 10024 <exit_program+0x10>
   1000c:	e12fff31 	blx	r1
   10010:	eaffffff 	b	10014 <exit_program>

00010014 <exit_program>:
   10014:	e3a00000 	mov	r0, #0
   10018:	e3a07001 	mov	r7, #1
   1001c:	ef000000 	svc	0x00000000
   10020:	000129e8 	andeq	r2, r1, r8, ror #19
   10024:	0001017d 	andeq	r0, r1, sp, ror r1

Disassembly of section .text:

00010028 <_read_r>:
   10028:	b580      	push	{r7, lr}
   1002a:	b084      	sub	sp, #16
   1002c:	af00      	add	r7, sp, #0
   1002e:	60f8      	str	r0, [r7, #12]
   10030:	60b9      	str	r1, [r7, #8]
   10032:	607a      	str	r2, [r7, #4]
   10034:	603b      	str	r3, [r7, #0]
   10036:	f000 fa1b 	bl	10470 <__errno>
   1003a:	4603      	mov	r3, r0
   1003c:	2216      	movs	r2, #22
   1003e:	601a      	str	r2, [r3, #0]
   10040:	f04f 33ff 	mov.w	r3, #4294967295	@ 0xffffffff
   10044:	4618      	mov	r0, r3
   10046:	3710      	adds	r7, #16
   10048:	46bd      	mov	sp, r7
   1004a:	bd80      	pop	{r7, pc}

0001004c <_lseek_r>:
   1004c:	b480      	push	{r7}
   1004e:	b085      	sub	sp, #20
   10050:	af00      	add	r7, sp, #0
   10052:	60f8      	str	r0, [r7, #12]
   10054:	60b9      	str	r1, [r7, #8]
   10056:	607a      	str	r2, [r7, #4]
   10058:	603b      	str	r3, [r7, #0]
   1005a:	2300      	movs	r3, #0
   1005c:	4618      	mov	r0, r3
   1005e:	3714      	adds	r7, #20
   10060:	46bd      	mov	sp, r7
   10062:	f85d 7b04 	ldr.w	r7, [sp], #4
   10066:	4770      	bx	lr

00010068 <_write_r>:
   10068:	b480      	push	{r7}
   1006a:	b087      	sub	sp, #28
   1006c:	af00      	add	r7, sp, #0
   1006e:	60f8      	str	r0, [r7, #12]
   10070:	60b9      	str	r1, [r7, #8]
   10072:	607a      	str	r2, [r7, #4]
   10074:	603b      	str	r3, [r7, #0]
   10076:	2300      	movs	r3, #0
   10078:	617b      	str	r3, [r7, #20]
   1007a:	e00a      	b.n	10092 <_write_r+0x2a>
   1007c:	687b      	ldr	r3, [r7, #4]
   1007e:	1c5a      	adds	r2, r3, #1
   10080:	607a      	str	r2, [r7, #4]
   10082:	781a      	ldrb	r2, [r3, #0]
   10084:	2300      	movs	r3, #0
   10086:	f6c1 4309 	movt	r3, #7177	@ 0x1c09
   1008a:	601a      	str	r2, [r3, #0]
   1008c:	697b      	ldr	r3, [r7, #20]
   1008e:	3301      	adds	r3, #1
   10090:	617b      	str	r3, [r7, #20]
   10092:	697a      	ldr	r2, [r7, #20]
   10094:	683b      	ldr	r3, [r7, #0]
   10096:	429a      	cmp	r2, r3
   10098:	dbf0      	blt.n	1007c <_write_r+0x14>
   1009a:	683b      	ldr	r3, [r7, #0]
   1009c:	4618      	mov	r0, r3
   1009e:	371c      	adds	r7, #28
   100a0:	46bd      	mov	sp, r7
   100a2:	f85d 7b04 	ldr.w	r7, [sp], #4
   100a6:	4770      	bx	lr

000100a8 <_close_r>:
   100a8:	b480      	push	{r7}
   100aa:	b083      	sub	sp, #12
   100ac:	af00      	add	r7, sp, #0
   100ae:	6078      	str	r0, [r7, #4]
   100b0:	6039      	str	r1, [r7, #0]
   100b2:	2300      	movs	r3, #0
   100b4:	4618      	mov	r0, r3
   100b6:	370c      	adds	r7, #12
   100b8:	46bd      	mov	sp, r7
   100ba:	f85d 7b04 	ldr.w	r7, [sp], #4
   100be:	4770      	bx	lr

000100c0 <_sbrk_r>:
   100c0:	b580      	push	{r7, lr}
   100c2:	b084      	sub	sp, #16
   100c4:	af00      	add	r7, sp, #0
   100c6:	6078      	str	r0, [r7, #4]
   100c8:	6039      	str	r1, [r7, #0]
   100ca:	f641 13e0 	movw	r3, #6624	@ 0x19e0
   100ce:	f2c0 0301 	movt	r3, #1
   100d2:	681b      	ldr	r3, [r3, #0]
   100d4:	2b00      	cmp	r3, #0
   100d6:	d108      	bne.n	100ea <_sbrk_r+0x2a>
   100d8:	f641 13e0 	movw	r3, #6624	@ 0x19e0
   100dc:	f2c0 0301 	movt	r3, #1
   100e0:	f642 12e8 	movw	r2, #10728	@ 0x29e8
   100e4:	f2c0 0201 	movt	r2, #1
   100e8:	601a      	str	r2, [r3, #0]
   100ea:	f641 13e0 	movw	r3, #6624	@ 0x19e0
   100ee:	f2c0 0301 	movt	r3, #1
   100f2:	681b      	ldr	r3, [r3, #0]
   100f4:	60fb      	str	r3, [r7, #12]
   100f6:	f641 13e0 	movw	r3, #6624	@ 0x19e0
   100fa:	f2c0 0301 	movt	r3, #1
   100fe:	681a      	ldr	r2, [r3, #0]
   10100:	683b      	ldr	r3, [r7, #0]
   10102:	4413      	add	r3, r2
   10104:	466a      	mov	r2, sp
   10106:	4293      	cmp	r3, r2
   10108:	d907      	bls.n	1011a <_sbrk_r+0x5a>
   1010a:	f000 f9b1 	bl	10470 <__errno>
   1010e:	4603      	mov	r3, r0
   10110:	220c      	movs	r2, #12
   10112:	601a      	str	r2, [r3, #0]
   10114:	f04f 33ff 	mov.w	r3, #4294967295	@ 0xffffffff
   10118:	e00c      	b.n	10134 <_sbrk_r+0x74>
   1011a:	f641 13e0 	movw	r3, #6624	@ 0x19e0
   1011e:	f2c0 0301 	movt	r3, #1
   10122:	681a      	ldr	r2, [r3, #0]
   10124:	683b      	ldr	r3, [r7, #0]
   10126:	441a      	add	r2, r3
   10128:	f641 13e0 	movw	r3, #6624	@ 0x19e0
   1012c:	f2c0 0301 	movt	r3, #1
   10130:	601a      	str	r2, [r3, #0]
   10132:	68fb      	ldr	r3, [r7, #12]
   10134:	4618      	mov	r0, r3
   10136:	3710      	adds	r7, #16
   10138:	46bd      	mov	sp, r7
   1013a:	bd80      	pop	{r7, pc}

0001013c <_fstat_r>:
   1013c:	b580      	push	{r7, lr}
   1013e:	b084      	sub	sp, #16
   10140:	af00      	add	r7, sp, #0
   10142:	60f8      	str	r0, [r7, #12]
   10144:	60b9      	str	r1, [r7, #8]
   10146:	607a      	str	r2, [r7, #4]
   10148:	2258      	movs	r2, #88	@ 0x58
   1014a:	2100      	movs	r1, #0
   1014c:	6878      	ldr	r0, [r7, #4]
   1014e:	f000 f995 	bl	1047c <memset>
   10152:	687b      	ldr	r3, [r7, #4]
   10154:	f44f 5200 	mov.w	r2, #8192	@ 0x2000
   10158:	605a      	str	r2, [r3, #4]
   1015a:	2300      	movs	r3, #0
   1015c:	4618      	mov	r0, r3
   1015e:	3710      	adds	r7, #16
   10160:	46bd      	mov	sp, r7
   10162:	bd80      	pop	{r7, pc}

00010164 <_isatty_r>:
   10164:	b480      	push	{r7}
   10166:	b083      	sub	sp, #12
   10168:	af00      	add	r7, sp, #0
   1016a:	6078      	str	r0, [r7, #4]
   1016c:	6039      	str	r1, [r7, #0]
   1016e:	2301      	movs	r3, #1
   10170:	4618      	mov	r0, r3
   10172:	370c      	adds	r7, #12
   10174:	46bd      	mov	sp, r7
   10176:	f85d 7b04 	ldr.w	r7, [sp], #4
   1017a:	4770      	bx	lr

0001017c <main>:
   1017c:	b480      	push	{r7}
   1017e:	b087      	sub	sp, #28
   10180:	af00      	add	r7, sp, #0
   10182:	2301      	movs	r3, #1
   10184:	617b      	str	r3, [r7, #20]
   10186:	2302      	movs	r3, #2
   10188:	613b      	str	r3, [r7, #16]
   1018a:	2300      	movs	r3, #0
   1018c:	60fb      	str	r3, [r7, #12]
   1018e:	697a      	ldr	r2, [r7, #20]
   10190:	693b      	ldr	r3, [r7, #16]
   10192:	4413      	add	r3, r2
   10194:	60fb      	str	r3, [r7, #12]
   10196:	697a      	ldr	r2, [r7, #20]
   10198:	68fb      	ldr	r3, [r7, #12]
   1019a:	4413      	add	r3, r2
   1019c:	617b      	str	r3, [r7, #20]
   1019e:	f649 139a 	movw	r3, #39322	@ 0x999a
   101a2:	f2c4 0349 	movt	r3, #16457	@ 0x4049
   101a6:	60bb      	str	r3, [r7, #8]
   101a8:	f641 63b8 	movw	r3, #7864	@ 0x1eb8
   101ac:	f6c3 7385 	movt	r3, #16261	@ 0x3f85
   101b0:	607b      	str	r3, [r7, #4]
   101b2:	f04f 0300 	mov.w	r3, #0
   101b6:	603b      	str	r3, [r7, #0]
   101b8:	ed97 7a02 	vldr	s14, [r7, #8]
   101bc:	edd7 7a01 	vldr	s15, [r7, #4]
   101c0:	ee77 7a27 	vadd.f32	s15, s14, s15
   101c4:	edc7 7a00 	vstr	s15, [r7]
   101c8:	ed97 7a01 	vldr	s14, [r7, #4]
   101cc:	edd7 7a00 	vldr	s15, [r7]
   101d0:	ee77 7a27 	vadd.f32	s15, s14, s15
   101d4:	edc7 7a01 	vstr	s15, [r7, #4]
   101d8:	2300      	movs	r3, #0
   101da:	4618      	mov	r0, r3
   101dc:	371c      	adds	r7, #28
   101de:	46bd      	mov	sp, r7
   101e0:	f85d 7b04 	ldr.w	r7, [sp], #4
   101e4:	4770      	bx	lr
	...

000101e8 <__udivsi3>:
   101e8:	1e4a      	subs	r2, r1, #1
   101ea:	bf08      	it	eq
   101ec:	4770      	bxeq	lr
   101ee:	f0c0 8124 	bcc.w	1043a <__udivsi3+0x252>
   101f2:	4288      	cmp	r0, r1
   101f4:	f240 8116 	bls.w	10424 <__udivsi3+0x23c>
   101f8:	4211      	tst	r1, r2
   101fa:	f000 8117 	beq.w	1042c <__udivsi3+0x244>
   101fe:	fab0 f380 	clz	r3, r0
   10202:	fab1 f281 	clz	r2, r1
   10206:	eba2 0303 	sub.w	r3, r2, r3
   1020a:	f1c3 031f 	rsb	r3, r3, #31
   1020e:	a204      	add	r2, pc, #16	@ (adr r2, 10220 <__udivsi3+0x38>)
   10210:	eb02 1303 	add.w	r3, r2, r3, lsl #4
   10214:	f04f 0200 	mov.w	r2, #0
   10218:	469f      	mov	pc, r3
   1021a:	bf00      	nop
   1021c:	f3af 8000 	nop.w
   10220:	ebb0 7fc1 	cmp.w	r0, r1, lsl #31
   10224:	bf00      	nop
   10226:	eb42 0202 	adc.w	r2, r2, r2
   1022a:	bf28      	it	cs
   1022c:	eba0 70c1 	subcs.w	r0, r0, r1, lsl #31
   10230:	ebb0 7f81 	cmp.w	r0, r1, lsl #30
   10234:	bf00      	nop
   10236:	eb42 0202 	adc.w	r2, r2, r2
   1023a:	bf28      	it	cs
   1023c:	eba0 7081 	subcs.w	r0, r0, r1, lsl #30
   10240:	ebb0 7f41 	cmp.w	r0, r1, lsl #29
   10244:	bf00      	nop
   10246:	eb42 0202 	adc.w	r2, r2, r2
   1024a:	bf28      	it	cs
   1024c:	eba0 7041 	subcs.w	r0, r0, r1, lsl #29
   10250:	ebb0 7f01 	cmp.w	r0, r1, lsl #28
   10254:	bf00      	nop
   10256:	eb42 0202 	adc.w	r2, r2, r2
   1025a:	bf28      	it	cs
   1025c:	eba0 7001 	subcs.w	r0, r0, r1, lsl #28
   10260:	ebb0 6fc1 	cmp.w	r0, r1, lsl #27
   10264:	bf00      	nop
   10266:	eb42 0202 	adc.w	r2, r2, r2
   1026a:	bf28      	it	cs
   1026c:	eba0 60c1 	subcs.w	r0, r0, r1, lsl #27
   10270:	ebb0 6f81 	cmp.w	r0, r1, lsl #26
   10274:	bf00      	nop
   10276:	eb42 0202 	adc.w	r2, r2, r2
   1027a:	bf28      	it	cs
   1027c:	eba0 6081 	subcs.w	r0, r0, r1, lsl #26
   10280:	ebb0 6f41 	cmp.w	r0, r1, lsl #25
   10284:	bf00      	nop
   10286:	eb42 0202 	adc.w	r2, r2, r2
   1028a:	bf28      	it	cs
   1028c:	eba0 6041 	subcs.w	r0, r0, r1, lsl #25
   10290:	ebb0 6f01 	cmp.w	r0, r1, lsl #24
   10294:	bf00      	nop
   10296:	eb42 0202 	adc.w	r2, r2, r2
   1029a:	bf28      	it	cs
   1029c:	eba0 6001 	subcs.w	r0, r0, r1, lsl #24
   102a0:	ebb0 5fc1 	cmp.w	r0, r1, lsl #23
   102a4:	bf00      	nop
   102a6:	eb42 0202 	adc.w	r2, r2, r2
   102aa:	bf28      	it	cs
   102ac:	eba0 50c1 	subcs.w	r0, r0, r1, lsl #23
   102b0:	ebb0 5f81 	cmp.w	r0, r1, lsl #22
   102b4:	bf00      	nop
   102b6:	eb42 0202 	adc.w	r2, r2, r2
   102ba:	bf28      	it	cs
   102bc:	eba0 5081 	subcs.w	r0, r0, r1, lsl #22
   102c0:	ebb0 5f41 	cmp.w	r0, r1, lsl #21
   102c4:	bf00      	nop
   102c6:	eb42 0202 	adc.w	r2, r2, r2
   102ca:	bf28      	it	cs
   102cc:	eba0 5041 	subcs.w	r0, r0, r1, lsl #21
   102d0:	ebb0 5f01 	cmp.w	r0, r1, lsl #20
   102d4:	bf00      	nop
   102d6:	eb42 0202 	adc.w	r2, r2, r2
   102da:	bf28      	it	cs
   102dc:	eba0 5001 	subcs.w	r0, r0, r1, lsl #20
   102e0:	ebb0 4fc1 	cmp.w	r0, r1, lsl #19
   102e4:	bf00      	nop
   102e6:	eb42 0202 	adc.w	r2, r2, r2
   102ea:	bf28      	it	cs
   102ec:	eba0 40c1 	subcs.w	r0, r0, r1, lsl #19
   102f0:	ebb0 4f81 	cmp.w	r0, r1, lsl #18
   102f4:	bf00      	nop
   102f6:	eb42 0202 	adc.w	r2, r2, r2
   102fa:	bf28      	it	cs
   102fc:	eba0 4081 	subcs.w	r0, r0, r1, lsl #18
   10300:	ebb0 4f41 	cmp.w	r0, r1, lsl #17
   10304:	bf00      	nop
   10306:	eb42 0202 	adc.w	r2, r2, r2
   1030a:	bf28      	it	cs
   1030c:	eba0 4041 	subcs.w	r0, r0, r1, lsl #17
   10310:	ebb0 4f01 	cmp.w	r0, r1, lsl #16
   10314:	bf00      	nop
   10316:	eb42 0202 	adc.w	r2, r2, r2
   1031a:	bf28      	it	cs
   1031c:	eba0 4001 	subcs.w	r0, r0, r1, lsl #16
   10320:	ebb0 3fc1 	cmp.w	r0, r1, lsl #15
   10324:	bf00      	nop
   10326:	eb42 0202 	adc.w	r2, r2, r2
   1032a:	bf28      	it	cs
   1032c:	eba0 30c1 	subcs.w	r0, r0, r1, lsl #15
   10330:	ebb0 3f81 	cmp.w	r0, r1, lsl #14
   10334:	bf00      	nop
   10336:	eb42 0202 	adc.w	r2, r2, r2
   1033a:	bf28      	it	cs
   1033c:	eba0 3081 	subcs.w	r0, r0, r1, lsl #14
   10340:	ebb0 3f41 	cmp.w	r0, r1, lsl #13
   10344:	bf00      	nop
   10346:	eb42 0202 	adc.w	r2, r2, r2
   1034a:	bf28      	it	cs
   1034c:	eba0 3041 	subcs.w	r0, r0, r1, lsl #13
   10350:	ebb0 3f01 	cmp.w	r0, r1, lsl #12
   10354:	bf00      	nop
   10356:	eb42 0202 	adc.w	r2, r2, r2
   1035a:	bf28      	it	cs
   1035c:	eba0 3001 	subcs.w	r0, r0, r1, lsl #12
   10360:	ebb0 2fc1 	cmp.w	r0, r1, lsl #11
   10364:	bf00      	nop
   10366:	eb42 0202 	adc.w	r2, r2, r2
   1036a:	bf28      	it	cs
   1036c:	eba0 20c1 	subcs.w	r0, r0, r1, lsl #11
   10370:	ebb0 2f81 	cmp.w	r0, r1, lsl #10
   10374:	bf00      	nop
   10376:	eb42 0202 	adc.w	r2, r2, r2
   1037a:	bf28      	it	cs
   1037c:	eba0 2081 	subcs.w	r0, r0, r1, lsl #10
   10380:	ebb0 2f41 	cmp.w	r0, r1, lsl #9
   10384:	bf00      	nop
   10386:	eb42 0202 	adc.w	r2, r2, r2
   1038a:	bf28      	it	cs
   1038c:	eba0 2041 	subcs.w	r0, r0, r1, lsl #9
   10390:	ebb0 2f01 	cmp.w	r0, r1, lsl #8
   10394:	bf00      	nop
   10396:	eb42 0202 	adc.w	r2, r2, r2
   1039a:	bf28      	it	cs
   1039c:	eba0 2001 	subcs.w	r0, r0, r1, lsl #8
   103a0:	ebb0 1fc1 	cmp.w	r0, r1, lsl #7
   103a4:	bf00      	nop
   103a6:	eb42 0202 	adc.w	r2, r2, r2
   103aa:	bf28      	it	cs
   103ac:	eba0 10c1 	subcs.w	r0, r0, r1, lsl #7
   103b0:	ebb0 1f81 	cmp.w	r0, r1, lsl #6
   103b4:	bf00      	nop
   103b6:	eb42 0202 	adc.w	r2, r2, r2
   103ba:	bf28      	it	cs
   103bc:	eba0 1081 	subcs.w	r0, r0, r1, lsl #6
   103c0:	ebb0 1f41 	cmp.w	r0, r1, lsl #5
   103c4:	bf00      	nop
   103c6:	eb42 0202 	adc.w	r2, r2, r2
   103ca:	bf28      	it	cs
   103cc:	eba0 1041 	subcs.w	r0, r0, r1, lsl #5
   103d0:	ebb0 1f01 	cmp.w	r0, r1, lsl #4
   103d4:	bf00      	nop
   103d6:	eb42 0202 	adc.w	r2, r2, r2
   103da:	bf28      	it	cs
   103dc:	eba0 1001 	subcs.w	r0, r0, r1, lsl #4
   103e0:	ebb0 0fc1 	cmp.w	r0, r1, lsl #3
   103e4:	bf00      	nop
   103e6:	eb42 0202 	adc.w	r2, r2, r2
   103ea:	bf28      	it	cs
   103ec:	eba0 00c1 	subcs.w	r0, r0, r1, lsl #3
   103f0:	ebb0 0f81 	cmp.w	r0, r1, lsl #2
   103f4:	bf00      	nop
   103f6:	eb42 0202 	adc.w	r2, r2, r2
   103fa:	bf28      	it	cs
   103fc:	eba0 0081 	subcs.w	r0, r0, r1, lsl #2
   10400:	ebb0 0f41 	cmp.w	r0, r1, lsl #1
   10404:	bf00      	nop
   10406:	eb42 0202 	adc.w	r2, r2, r2
   1040a:	bf28      	it	cs
   1040c:	eba0 0041 	subcs.w	r0, r0, r1, lsl #1
   10410:	ebb0 0f01 	cmp.w	r0, r1
   10414:	bf00      	nop
   10416:	eb42 0202 	adc.w	r2, r2, r2
   1041a:	bf28      	it	cs
   1041c:	eba0 0001 	subcs.w	r0, r0, r1
   10420:	4610      	mov	r0, r2
   10422:	4770      	bx	lr
   10424:	bf0c      	ite	eq
   10426:	2001      	moveq	r0, #1
   10428:	2000      	movne	r0, #0
   1042a:	4770      	bx	lr
   1042c:	fab1 f281 	clz	r2, r1
   10430:	f1c2 021f 	rsb	r2, r2, #31
   10434:	fa20 f002 	lsr.w	r0, r0, r2
   10438:	4770      	bx	lr
   1043a:	b108      	cbz	r0, 10440 <__udivsi3+0x258>
   1043c:	f04f 30ff 	mov.w	r0, #4294967295	@ 0xffffffff
   10440:	f000 b80e 	b.w	10460 <__aeabi_idiv0>

00010444 <__aeabi_uidivmod>:
   10444:	2900      	cmp	r1, #0
   10446:	d0f8      	beq.n	1043a <__udivsi3+0x252>
   10448:	e92d 4003 	stmdb	sp!, {r0, r1, lr}
   1044c:	f7ff fecc 	bl	101e8 <__udivsi3>
   10450:	e8bd 4006 	ldmia.w	sp!, {r1, r2, lr}
   10454:	fb02 f300 	mul.w	r3, r2, r0
   10458:	eba1 0103 	sub.w	r1, r1, r3
   1045c:	4770      	bx	lr
   1045e:	bf00      	nop

00010460 <__aeabi_idiv0>:
   10460:	4770      	bx	lr
   10462:	bf00      	nop

Disassembly of section .txt:

00010468 <__exidx_start>:
   10468:	00000000 	andeq	r0, r0, r0

0001046c <__exidx_end>:
   1046c:	00000000 	andeq	r0, r0, r0

Disassembly of section .text.__errno:

00010470 <__errno>:
   10470:	f241 439c 	movw	r3, #5276	@ 0x149c
   10474:	f2c0 0301 	movt	r3, #1
   10478:	6818      	ldr	r0, [r3, #0]
   1047a:	4770      	bx	lr

Disassembly of section .text.memset:

0001047c <memset>:
   1047c:	b530      	push	{r4, r5, lr}
   1047e:	0783      	lsls	r3, r0, #30
   10480:	d04b      	beq.n	1051a <memset+0x9e>
   10482:	1e54      	subs	r4, r2, #1
   10484:	2a00      	cmp	r2, #0
   10486:	d043      	beq.n	10510 <memset+0x94>
   10488:	b2ca      	uxtb	r2, r1
   1048a:	4603      	mov	r3, r0
   1048c:	e001      	b.n	10492 <memset+0x16>
   1048e:	3c01      	subs	r4, #1
   10490:	d33e      	bcc.n	10510 <memset+0x94>
   10492:	f803 2b01 	strb.w	r2, [r3], #1
   10496:	079d      	lsls	r5, r3, #30
   10498:	d1f9      	bne.n	1048e <memset+0x12>
   1049a:	2c03      	cmp	r4, #3
   1049c:	d931      	bls.n	10502 <memset+0x86>
   1049e:	b2cd      	uxtb	r5, r1
   104a0:	f04f 3201 	mov.w	r2, #16843009	@ 0x1010101
   104a4:	2c0f      	cmp	r4, #15
   104a6:	fb02 f505 	mul.w	r5, r2, r5
   104aa:	d939      	bls.n	10520 <memset+0xa4>
   104ac:	f1a4 0210 	sub.w	r2, r4, #16
   104b0:	f103 0c10 	add.w	ip, r3, #16
   104b4:	f022 0e0f 	bic.w	lr, r2, #15
   104b8:	44f4      	add	ip, lr
   104ba:	ea4f 1e12 	mov.w	lr, r2, lsr #4
   104be:	461a      	mov	r2, r3
   104c0:	e9c2 5500 	strd	r5, r5, [r2]
   104c4:	e9c2 5502 	strd	r5, r5, [r2, #8]
   104c8:	3210      	adds	r2, #16
   104ca:	4562      	cmp	r2, ip
   104cc:	d1f8      	bne.n	104c0 <memset+0x44>
   104ce:	f10e 0201 	add.w	r2, lr, #1
   104d2:	f014 0f0c 	tst.w	r4, #12
   104d6:	f004 0e0f 	and.w	lr, r4, #15
   104da:	eb03 1302 	add.w	r3, r3, r2, lsl #4
   104de:	d018      	beq.n	10512 <memset+0x96>
   104e0:	461a      	mov	r2, r3
   104e2:	eb03 0c0e 	add.w	ip, r3, lr
   104e6:	f842 5b04 	str.w	r5, [r2], #4
   104ea:	ebac 0402 	sub.w	r4, ip, r2
   104ee:	2c03      	cmp	r4, #3
   104f0:	d8f9      	bhi.n	104e6 <memset+0x6a>
   104f2:	f1ae 0204 	sub.w	r2, lr, #4
   104f6:	f00e 0403 	and.w	r4, lr, #3
   104fa:	f022 0203 	bic.w	r2, r2, #3
   104fe:	3204      	adds	r2, #4
   10500:	4413      	add	r3, r2
   10502:	b12c      	cbz	r4, 10510 <memset+0x94>
   10504:	b2c9      	uxtb	r1, r1
   10506:	441c      	add	r4, r3
   10508:	f803 1b01 	strb.w	r1, [r3], #1
   1050c:	42a3      	cmp	r3, r4
   1050e:	d1fb      	bne.n	10508 <memset+0x8c>
   10510:	bd30      	pop	{r4, r5, pc}
   10512:	4674      	mov	r4, lr
   10514:	2c00      	cmp	r4, #0
   10516:	d1f5      	bne.n	10504 <memset+0x88>
   10518:	e7fa      	b.n	10510 <memset+0x94>
   1051a:	4603      	mov	r3, r0
   1051c:	4614      	mov	r4, r2
   1051e:	e7bc      	b.n	1049a <memset+0x1e>
   10520:	46a6      	mov	lr, r4
   10522:	e7dd      	b.n	104e0 <memset+0x64>

Disassembly of section .text.stdio_exit_handler:

00010524 <stdio_exit_handler>:
   10524:	f241 52c0 	movw	r2, #5568	@ 0x15c0
   10528:	f2c0 0201 	movt	r2, #1
   1052c:	f640 61c5 	movw	r1, #3781	@ 0xec5
   10530:	f2c0 0101 	movt	r1, #1
   10534:	f241 40a0 	movw	r0, #5280	@ 0x14a0
   10538:	f2c0 0001 	movt	r0, #1
   1053c:	f000 b9c6 	b.w	108cc <_fwalk_sglue>

Disassembly of section .text.cleanup_stdio:

00010540 <cleanup_stdio>:
   10540:	6841      	ldr	r1, [r0, #4]
   10542:	f642 13e8 	movw	r3, #10728	@ 0x29e8
   10546:	f2c0 0301 	movt	r3, #1
   1054a:	b510      	push	{r4, lr}
   1054c:	4299      	cmp	r1, r3
   1054e:	4604      	mov	r4, r0
   10550:	d001      	beq.n	10556 <cleanup_stdio+0x16>
   10552:	f000 fcb7 	bl	10ec4 <_fclose_r>
   10556:	68a1      	ldr	r1, [r4, #8]
   10558:	4b07      	ldr	r3, [pc, #28]	@ (10578 <cleanup_stdio+0x38>)
   1055a:	4299      	cmp	r1, r3
   1055c:	d002      	beq.n	10564 <cleanup_stdio+0x24>
   1055e:	4620      	mov	r0, r4
   10560:	f000 fcb0 	bl	10ec4 <_fclose_r>
   10564:	68e1      	ldr	r1, [r4, #12]
   10566:	4b05      	ldr	r3, [pc, #20]	@ (1057c <cleanup_stdio+0x3c>)
   10568:	4299      	cmp	r1, r3
   1056a:	d004      	beq.n	10576 <cleanup_stdio+0x36>
   1056c:	4620      	mov	r0, r4
   1056e:	e8bd 4010 	ldmia.w	sp!, {r4, lr}
   10572:	f000 bca7 	b.w	10ec4 <_fclose_r>
   10576:	bd10      	pop	{r4, pc}
   10578:	00012a50 	andeq	r2, r1, r0, asr sl
   1057c:	00012ab8 			@ <UNDEFINED> instruction: 0x00012ab8

Disassembly of section .text.__fp_lock:

00010580 <__fp_lock>:
   10580:	b508      	push	{r3, lr}
   10582:	6e4b      	ldr	r3, [r1, #100]	@ 0x64
   10584:	07da      	lsls	r2, r3, #31
   10586:	d402      	bmi.n	1058e <__fp_lock+0xe>
   10588:	898b      	ldrh	r3, [r1, #12]
   1058a:	059b      	lsls	r3, r3, #22
   1058c:	d501      	bpl.n	10592 <__fp_lock+0x12>
   1058e:	2000      	movs	r0, #0
   10590:	bd08      	pop	{r3, pc}
   10592:	6d88      	ldr	r0, [r1, #88]	@ 0x58
   10594:	f000 fc8c 	bl	10eb0 <__retarget_lock_acquire_recursive>
   10598:	2000      	movs	r0, #0
   1059a:	bd08      	pop	{r3, pc}

Disassembly of section .text.__fp_unlock:

0001059c <__fp_unlock>:
   1059c:	b508      	push	{r3, lr}
   1059e:	6e4b      	ldr	r3, [r1, #100]	@ 0x64
   105a0:	07da      	lsls	r2, r3, #31
   105a2:	d402      	bmi.n	105aa <__fp_unlock+0xe>
   105a4:	898b      	ldrh	r3, [r1, #12]
   105a6:	059b      	lsls	r3, r3, #22
   105a8:	d501      	bpl.n	105ae <__fp_unlock+0x12>
   105aa:	2000      	movs	r0, #0
   105ac:	bd08      	pop	{r3, pc}
   105ae:	6d88      	ldr	r0, [r1, #88]	@ 0x58
   105b0:	f000 fc86 	bl	10ec0 <__retarget_lock_release_recursive>
   105b4:	2000      	movs	r0, #0
   105b6:	bd08      	pop	{r3, pc}

Disassembly of section .text.global_stdio_init.part.0:

000105b8 <global_stdio_init.part.0>:
   105b8:	e92d 43f8 	stmdb	sp!, {r3, r4, r5, r6, r7, r8, r9, lr}
   105bc:	f642 3320 	movw	r3, #11040	@ 0x2b20
   105c0:	f2c0 0301 	movt	r3, #1
   105c4:	f642 14e8 	movw	r4, #10728	@ 0x29e8
   105c8:	f2c0 0401 	movt	r4, #1
   105cc:	2500      	movs	r5, #0
   105ce:	2208      	movs	r2, #8
   105d0:	4629      	mov	r1, r5
   105d2:	2004      	movs	r0, #4
   105d4:	60e0      	str	r0, [r4, #12]
   105d6:	f240 5025 	movw	r0, #1317	@ 0x525
   105da:	f2c0 0001 	movt	r0, #1
   105de:	6018      	str	r0, [r3, #0]
   105e0:	f104 005c 	add.w	r0, r4, #92	@ 0x5c
   105e4:	e9c4 5500 	strd	r5, r5, [r4]
   105e8:	60a5      	str	r5, [r4, #8]
   105ea:	f640 0939 	movw	r9, #2105	@ 0x839
   105ee:	f2c0 0901 	movt	r9, #1
   105f2:	6665      	str	r5, [r4, #100]	@ 0x64
   105f4:	e9c4 5504 	strd	r5, r5, [r4, #16]
   105f8:	f640 0861 	movw	r8, #2145	@ 0x861
   105fc:	f2c0 0801 	movt	r8, #1
   10600:	61a5      	str	r5, [r4, #24]
   10602:	f7ff ff3b 	bl	1047c <memset>
   10606:	f104 0058 	add.w	r0, r4, #88	@ 0x58
   1060a:	e9c4 4907 	strd	r4, r9, [r4, #28]
   1060e:	f640 07a1 	movw	r7, #2209	@ 0x8a1
   10612:	f2c0 0701 	movt	r7, #1
   10616:	f640 06c5 	movw	r6, #2245	@ 0x8c5
   1061a:	f2c0 0601 	movt	r6, #1
   1061e:	e9c4 8709 	strd	r8, r7, [r4, #36]	@ 0x24
   10622:	62e6      	str	r6, [r4, #44]	@ 0x2c
   10624:	f000 fc3c 	bl	10ea0 <__retarget_lock_init_recursive>
   10628:	4629      	mov	r1, r5
   1062a:	2208      	movs	r2, #8
   1062c:	f104 00c4 	add.w	r0, r4, #196	@ 0xc4
   10630:	e9c4 551a 	strd	r5, r5, [r4, #104]	@ 0x68
   10634:	6725      	str	r5, [r4, #112]	@ 0x70
   10636:	2309      	movs	r3, #9
   10638:	f2c0 0301 	movt	r3, #1
   1063c:	f8c4 50cc 	str.w	r5, [r4, #204]	@ 0xcc
   10640:	6763      	str	r3, [r4, #116]	@ 0x74
   10642:	e9c4 551e 	strd	r5, r5, [r4, #120]	@ 0x78
   10646:	f8c4 5080 	str.w	r5, [r4, #128]	@ 0x80
   1064a:	f7ff ff17 	bl	1047c <memset>
   1064e:	f104 00c0 	add.w	r0, r4, #192	@ 0xc0
   10652:	f104 0368 	add.w	r3, r4, #104	@ 0x68
   10656:	e9c4 9822 	strd	r9, r8, [r4, #136]	@ 0x88
   1065a:	f8c4 3084 	str.w	r3, [r4, #132]	@ 0x84
   1065e:	e9c4 7624 	strd	r7, r6, [r4, #144]	@ 0x90
   10662:	f000 fc1d 	bl	10ea0 <__retarget_lock_init_recursive>
   10666:	4629      	mov	r1, r5
   10668:	f504 7096 	add.w	r0, r4, #300	@ 0x12c
   1066c:	2208      	movs	r2, #8
   1066e:	e9c4 5534 	strd	r5, r5, [r4, #208]	@ 0xd0
   10672:	f8c4 50d8 	str.w	r5, [r4, #216]	@ 0xd8
   10676:	2312      	movs	r3, #18
   10678:	f2c0 0302 	movt	r3, #2
   1067c:	f8c4 5134 	str.w	r5, [r4, #308]	@ 0x134
   10680:	f8c4 30dc 	str.w	r3, [r4, #220]	@ 0xdc
   10684:	e9c4 5538 	strd	r5, r5, [r4, #224]	@ 0xe0
   10688:	f8c4 50e8 	str.w	r5, [r4, #232]	@ 0xe8
   1068c:	f7ff fef6 	bl	1047c <memset>
   10690:	f104 03d0 	add.w	r3, r4, #208	@ 0xd0
   10694:	f504 7094 	add.w	r0, r4, #296	@ 0x128
   10698:	f8c4 90f0 	str.w	r9, [r4, #240]	@ 0xf0
   1069c:	e9c4 873d 	strd	r8, r7, [r4, #244]	@ 0xf4
   106a0:	f8c4 60fc 	str.w	r6, [r4, #252]	@ 0xfc
   106a4:	f8c4 30ec 	str.w	r3, [r4, #236]	@ 0xec
   106a8:	e8bd 43f8 	ldmia.w	sp!, {r3, r4, r5, r6, r7, r8, r9, lr}
   106ac:	f000 bbf8 	b.w	10ea0 <__retarget_lock_init_recursive>

Disassembly of section .text.__sfp:

000106b0 <__sfp>:
   106b0:	b5f8      	push	{r3, r4, r5, r6, r7, lr}
   106b2:	4606      	mov	r6, r0
   106b4:	f642 3074 	movw	r0, #11124	@ 0x2b74
   106b8:	f2c0 0001 	movt	r0, #1
   106bc:	f000 fbf8 	bl	10eb0 <__retarget_lock_acquire_recursive>
   106c0:	f642 3320 	movw	r3, #11040	@ 0x2b20
   106c4:	f2c0 0301 	movt	r3, #1
   106c8:	681b      	ldr	r3, [r3, #0]
   106ca:	2b00      	cmp	r3, #0
   106cc:	d04a      	beq.n	10764 <__sfp+0xb4>
   106ce:	f241 57c0 	movw	r7, #5568	@ 0x15c0
   106d2:	f2c0 0701 	movt	r7, #1
   106d6:	e9d7 3401 	ldrd	r3, r4, [r7, #4]
   106da:	3b01      	subs	r3, #1
   106dc:	d503      	bpl.n	106e6 <__sfp+0x36>
   106de:	e028      	b.n	10732 <__sfp+0x82>
   106e0:	3468      	adds	r4, #104	@ 0x68
   106e2:	1c5a      	adds	r2, r3, #1
   106e4:	d025      	beq.n	10732 <__sfp+0x82>
   106e6:	f9b4 500c 	ldrsh.w	r5, [r4, #12]
   106ea:	3b01      	subs	r3, #1
   106ec:	2d00      	cmp	r5, #0
   106ee:	d1f7      	bne.n	106e0 <__sfp+0x30>
   106f0:	f104 0058 	add.w	r0, r4, #88	@ 0x58
   106f4:	2301      	movs	r3, #1
   106f6:	f6cf 73ff 	movt	r3, #65535	@ 0xffff
   106fa:	6665      	str	r5, [r4, #100]	@ 0x64
   106fc:	60e3      	str	r3, [r4, #12]
   106fe:	f000 fbcf 	bl	10ea0 <__retarget_lock_init_recursive>
   10702:	f642 3074 	movw	r0, #11124	@ 0x2b74
   10706:	f2c0 0001 	movt	r0, #1
   1070a:	f000 fbd9 	bl	10ec0 <__retarget_lock_release_recursive>
   1070e:	2208      	movs	r2, #8
   10710:	4629      	mov	r1, r5
   10712:	f104 005c 	add.w	r0, r4, #92	@ 0x5c
   10716:	6025      	str	r5, [r4, #0]
   10718:	e9c4 5501 	strd	r5, r5, [r4, #4]
   1071c:	e9c4 5504 	strd	r5, r5, [r4, #16]
   10720:	61a5      	str	r5, [r4, #24]
   10722:	f7ff feab 	bl	1047c <memset>
   10726:	e9c4 550c 	strd	r5, r5, [r4, #48]	@ 0x30
   1072a:	e9c4 5511 	strd	r5, r5, [r4, #68]	@ 0x44
   1072e:	4620      	mov	r0, r4
   10730:	bdf8      	pop	{r3, r4, r5, r6, r7, pc}
   10732:	683d      	ldr	r5, [r7, #0]
   10734:	b10d      	cbz	r5, 1073a <__sfp+0x8a>
   10736:	462f      	mov	r7, r5
   10738:	e7cd      	b.n	106d6 <__sfp+0x26>
   1073a:	f44f 71d6 	mov.w	r1, #428	@ 0x1ac
   1073e:	4630      	mov	r0, r6
   10740:	f000 f8e6 	bl	10910 <_malloc_r>
   10744:	4604      	mov	r4, r0
   10746:	b180      	cbz	r0, 1076a <__sfp+0xba>
   10748:	6005      	str	r5, [r0, #0]
   1074a:	2304      	movs	r3, #4
   1074c:	4629      	mov	r1, r5
   1074e:	6043      	str	r3, [r0, #4]
   10750:	f44f 72d0 	mov.w	r2, #416	@ 0x1a0
   10754:	300c      	adds	r0, #12
   10756:	4625      	mov	r5, r4
   10758:	60a0      	str	r0, [r4, #8]
   1075a:	f7ff fe8f 	bl	1047c <memset>
   1075e:	603c      	str	r4, [r7, #0]
   10760:	462f      	mov	r7, r5
   10762:	e7b8      	b.n	106d6 <__sfp+0x26>
   10764:	f7ff ff28 	bl	105b8 <global_stdio_init.part.0>
   10768:	e7b1      	b.n	106ce <__sfp+0x1e>
   1076a:	6038      	str	r0, [r7, #0]
   1076c:	f642 3074 	movw	r0, #11124	@ 0x2b74
   10770:	f2c0 0001 	movt	r0, #1
   10774:	f000 fba4 	bl	10ec0 <__retarget_lock_release_recursive>
   10778:	230c      	movs	r3, #12
   1077a:	6033      	str	r3, [r6, #0]
   1077c:	e7d7      	b.n	1072e <__sfp+0x7e>
   1077e:	bf00      	nop

Disassembly of section .text.__sinit:

00010780 <__sinit>:
   10780:	b510      	push	{r4, lr}
   10782:	4604      	mov	r4, r0
   10784:	f642 3074 	movw	r0, #11124	@ 0x2b74
   10788:	f2c0 0001 	movt	r0, #1
   1078c:	f000 fb90 	bl	10eb0 <__retarget_lock_acquire_recursive>
   10790:	6b63      	ldr	r3, [r4, #52]	@ 0x34
   10792:	b953      	cbnz	r3, 107aa <__sinit+0x2a>
   10794:	f642 3320 	movw	r3, #11040	@ 0x2b20
   10798:	f2c0 0301 	movt	r3, #1
   1079c:	f240 5241 	movw	r2, #1345	@ 0x541
   107a0:	f2c0 0201 	movt	r2, #1
   107a4:	6362      	str	r2, [r4, #52]	@ 0x34
   107a6:	681b      	ldr	r3, [r3, #0]
   107a8:	b13b      	cbz	r3, 107ba <__sinit+0x3a>
   107aa:	f642 3074 	movw	r0, #11124	@ 0x2b74
   107ae:	f2c0 0001 	movt	r0, #1
   107b2:	e8bd 4010 	ldmia.w	sp!, {r4, lr}
   107b6:	f000 bb83 	b.w	10ec0 <__retarget_lock_release_recursive>
   107ba:	f7ff fefd 	bl	105b8 <global_stdio_init.part.0>
   107be:	f642 3074 	movw	r0, #11124	@ 0x2b74
   107c2:	f2c0 0001 	movt	r0, #1
   107c6:	e8bd 4010 	ldmia.w	sp!, {r4, lr}
   107ca:	f000 bb79 	b.w	10ec0 <__retarget_lock_release_recursive>
   107ce:	bf00      	nop

Disassembly of section .text.__sfp_lock_acquire:

000107d0 <__sfp_lock_acquire>:
   107d0:	f642 3074 	movw	r0, #11124	@ 0x2b74
   107d4:	f2c0 0001 	movt	r0, #1
   107d8:	f000 bb6a 	b.w	10eb0 <__retarget_lock_acquire_recursive>

Disassembly of section .text.__sfp_lock_release:

000107dc <__sfp_lock_release>:
   107dc:	f642 3074 	movw	r0, #11124	@ 0x2b74
   107e0:	f2c0 0001 	movt	r0, #1
   107e4:	f000 bb6c 	b.w	10ec0 <__retarget_lock_release_recursive>

Disassembly of section .text.__fp_lock_all:

000107e8 <__fp_lock_all>:
   107e8:	b508      	push	{r3, lr}
   107ea:	f642 3074 	movw	r0, #11124	@ 0x2b74
   107ee:	f2c0 0001 	movt	r0, #1
   107f2:	f000 fb5d 	bl	10eb0 <__retarget_lock_acquire_recursive>
   107f6:	f241 52c0 	movw	r2, #5568	@ 0x15c0
   107fa:	f2c0 0201 	movt	r2, #1
   107fe:	f240 5181 	movw	r1, #1409	@ 0x581
   10802:	f2c0 0101 	movt	r1, #1
   10806:	2000      	movs	r0, #0
   10808:	e8bd 4008 	ldmia.w	sp!, {r3, lr}
   1080c:	f000 b85e 	b.w	108cc <_fwalk_sglue>

Disassembly of section .text.__fp_unlock_all:

00010810 <__fp_unlock_all>:
   10810:	b508      	push	{r3, lr}
   10812:	2000      	movs	r0, #0
   10814:	f241 52c0 	movw	r2, #5568	@ 0x15c0
   10818:	f2c0 0201 	movt	r2, #1
   1081c:	f240 519d 	movw	r1, #1437	@ 0x59d
   10820:	f2c0 0101 	movt	r1, #1
   10824:	f000 f852 	bl	108cc <_fwalk_sglue>
   10828:	f642 3074 	movw	r0, #11124	@ 0x2b74
   1082c:	f2c0 0001 	movt	r0, #1
   10830:	e8bd 4008 	ldmia.w	sp!, {r3, lr}
   10834:	f000 bb44 	b.w	10ec0 <__retarget_lock_release_recursive>

Disassembly of section .text.__sread:

00010838 <__sread>:
   10838:	b510      	push	{r4, lr}
   1083a:	460c      	mov	r4, r1
   1083c:	f9b1 100e 	ldrsh.w	r1, [r1, #14]
   10840:	f7ff fbf2 	bl	10028 <_read_r>
   10844:	2800      	cmp	r0, #0
   10846:	bfa9      	itett	ge
   10848:	6d23      	ldrge	r3, [r4, #80]	@ 0x50
   1084a:	89a3      	ldrhlt	r3, [r4, #12]
   1084c:	181b      	addge	r3, r3, r0
   1084e:	6523      	strge	r3, [r4, #80]	@ 0x50
   10850:	bfbc      	itt	lt
   10852:	f423 5380 	biclt.w	r3, r3, #4096	@ 0x1000
   10856:	81a3      	strhlt	r3, [r4, #12]
   10858:	bd10      	pop	{r4, pc}
   1085a:	bf00      	nop

Disassembly of section .text.__seofread:

0001085c <__seofread>:
   1085c:	2000      	movs	r0, #0
   1085e:	4770      	bx	lr

Disassembly of section .text.__swrite:

00010860 <__swrite>:
   10860:	e92d 41f0 	stmdb	sp!, {r4, r5, r6, r7, r8, lr}
   10864:	460c      	mov	r4, r1
   10866:	f9b1 100c 	ldrsh.w	r1, [r1, #12]
   1086a:	461f      	mov	r7, r3
   1086c:	4605      	mov	r5, r0
   1086e:	4616      	mov	r6, r2
   10870:	05cb      	lsls	r3, r1, #23
   10872:	d40b      	bmi.n	1088c <__swrite+0x2c>
   10874:	f421 5180 	bic.w	r1, r1, #4096	@ 0x1000
   10878:	463b      	mov	r3, r7
   1087a:	81a1      	strh	r1, [r4, #12]
   1087c:	4632      	mov	r2, r6
   1087e:	f9b4 100e 	ldrsh.w	r1, [r4, #14]
   10882:	4628      	mov	r0, r5
   10884:	e8bd 41f0 	ldmia.w	sp!, {r4, r5, r6, r7, r8, lr}
   10888:	f7ff bbee 	b.w	10068 <_write_r>
   1088c:	f9b4 100e 	ldrsh.w	r1, [r4, #14]
   10890:	2302      	movs	r3, #2
   10892:	2200      	movs	r2, #0
   10894:	f7ff fbda 	bl	1004c <_lseek_r>
   10898:	f9b4 100c 	ldrsh.w	r1, [r4, #12]
   1089c:	e7ea      	b.n	10874 <__swrite+0x14>
   1089e:	bf00      	nop

Disassembly of section .text.__sseek:

000108a0 <__sseek>:
   108a0:	b510      	push	{r4, lr}
   108a2:	460c      	mov	r4, r1
   108a4:	f9b1 100e 	ldrsh.w	r1, [r1, #14]
   108a8:	f7ff fbd0 	bl	1004c <_lseek_r>
   108ac:	1c42      	adds	r2, r0, #1
   108ae:	f9b4 300c 	ldrsh.w	r3, [r4, #12]
   108b2:	bf16      	itet	ne
   108b4:	6520      	strne	r0, [r4, #80]	@ 0x50
   108b6:	f423 5380 	biceq.w	r3, r3, #4096	@ 0x1000
   108ba:	f443 5380 	orrne.w	r3, r3, #4096	@ 0x1000
   108be:	81a3      	strh	r3, [r4, #12]
   108c0:	bd10      	pop	{r4, pc}
   108c2:	bf00      	nop

Disassembly of section .text.__sclose:

000108c4 <__sclose>:
   108c4:	f9b1 100e 	ldrsh.w	r1, [r1, #14]
   108c8:	f7ff bbee 	b.w	100a8 <_close_r>

Disassembly of section .text._fwalk_sglue:

000108cc <_fwalk_sglue>:
   108cc:	e92d 43f8 	stmdb	sp!, {r3, r4, r5, r6, r7, r8, r9, lr}
   108d0:	4607      	mov	r7, r0
   108d2:	4688      	mov	r8, r1
   108d4:	4616      	mov	r6, r2
   108d6:	f04f 0900 	mov.w	r9, #0
   108da:	e9d6 5401 	ldrd	r5, r4, [r6, #4]
   108de:	3d01      	subs	r5, #1
   108e0:	d40f      	bmi.n	10902 <_fwalk_sglue+0x36>
   108e2:	89a3      	ldrh	r3, [r4, #12]
   108e4:	2b01      	cmp	r3, #1
   108e6:	d908      	bls.n	108fa <_fwalk_sglue+0x2e>
   108e8:	f9b4 300e 	ldrsh.w	r3, [r4, #14]
   108ec:	4621      	mov	r1, r4
   108ee:	4638      	mov	r0, r7
   108f0:	3301      	adds	r3, #1
   108f2:	d002      	beq.n	108fa <_fwalk_sglue+0x2e>
   108f4:	47c0      	blx	r8
   108f6:	ea49 0900 	orr.w	r9, r9, r0
   108fa:	3d01      	subs	r5, #1
   108fc:	3468      	adds	r4, #104	@ 0x68
   108fe:	1c6b      	adds	r3, r5, #1
   10900:	d1ef      	bne.n	108e2 <_fwalk_sglue+0x16>
   10902:	6836      	ldr	r6, [r6, #0]
   10904:	2e00      	cmp	r6, #0
   10906:	d1e8      	bne.n	108da <_fwalk_sglue+0xe>
   10908:	4648      	mov	r0, r9
   1090a:	e8bd 83f8 	ldmia.w	sp!, {r3, r4, r5, r6, r7, r8, r9, pc}
   1090e:	bf00      	nop

Disassembly of section .text._malloc_r:

00010910 <_malloc_r>:
   10910:	e92d 4ff0 	stmdb	sp!, {r4, r5, r6, r7, r8, r9, sl, fp, lr}
   10914:	f101 030b 	add.w	r3, r1, #11
   10918:	4607      	mov	r7, r0
   1091a:	b083      	sub	sp, #12
   1091c:	2b16      	cmp	r3, #22
   1091e:	d826      	bhi.n	1096e <_malloc_r+0x5e>
   10920:	2910      	cmp	r1, #16
   10922:	f200 80b9 	bhi.w	10a98 <_malloc_r+0x188>
   10926:	f000 fb43 	bl	10fb0 <__malloc_lock>
   1092a:	2510      	movs	r5, #16
   1092c:	2318      	movs	r3, #24
   1092e:	2002      	movs	r0, #2
   10930:	f241 56d8 	movw	r6, #5592	@ 0x15d8
   10934:	f2c0 0601 	movt	r6, #1
   10938:	4433      	add	r3, r6
   1093a:	f1a3 0208 	sub.w	r2, r3, #8
   1093e:	685c      	ldr	r4, [r3, #4]
   10940:	4294      	cmp	r4, r2
   10942:	f000 819f 	beq.w	10c84 <_malloc_r+0x374>
   10946:	6863      	ldr	r3, [r4, #4]
   10948:	4638      	mov	r0, r7
   1094a:	e9d4 1202 	ldrd	r1, r2, [r4, #8]
   1094e:	f023 0303 	bic.w	r3, r3, #3
   10952:	4423      	add	r3, r4
   10954:	60ca      	str	r2, [r1, #12]
   10956:	6091      	str	r1, [r2, #8]
   10958:	685a      	ldr	r2, [r3, #4]
   1095a:	3408      	adds	r4, #8
   1095c:	f042 0201 	orr.w	r2, r2, #1
   10960:	605a      	str	r2, [r3, #4]
   10962:	f000 fb2b 	bl	10fbc <__malloc_unlock>
   10966:	4620      	mov	r0, r4
   10968:	b003      	add	sp, #12
   1096a:	e8bd 8ff0 	ldmia.w	sp!, {r4, r5, r6, r7, r8, r9, sl, fp, pc}
   1096e:	f023 0507 	bic.w	r5, r3, #7
   10972:	42a9      	cmp	r1, r5
   10974:	bf94      	ite	ls
   10976:	2100      	movls	r1, #0
   10978:	2101      	movhi	r1, #1
   1097a:	ea51 71d3 	orrs.w	r1, r1, r3, lsr #31
   1097e:	f040 808b 	bne.w	10a98 <_malloc_r+0x188>
   10982:	f000 fb15 	bl	10fb0 <__malloc_lock>
   10986:	f5b5 7ffc 	cmp.w	r5, #504	@ 0x1f8
   1098a:	f0c0 81d2 	bcc.w	10d32 <_malloc_r+0x422>
   1098e:	0a6b      	lsrs	r3, r5, #9
   10990:	f000 8086 	beq.w	10aa0 <_malloc_r+0x190>
   10994:	2b04      	cmp	r3, #4
   10996:	f200 819c 	bhi.w	10cd2 <_malloc_r+0x3c2>
   1099a:	09ab      	lsrs	r3, r5, #6
   1099c:	f103 0039 	add.w	r0, r3, #57	@ 0x39
   109a0:	f103 0e38 	add.w	lr, r3, #56	@ 0x38
   109a4:	00c3      	lsls	r3, r0, #3
   109a6:	f241 56d8 	movw	r6, #5592	@ 0x15d8
   109aa:	f2c0 0601 	movt	r6, #1
   109ae:	4433      	add	r3, r6
   109b0:	f1a3 0c08 	sub.w	ip, r3, #8
   109b4:	685c      	ldr	r4, [r3, #4]
   109b6:	45a4      	cmp	ip, r4
   109b8:	d107      	bne.n	109ca <_malloc_r+0xba>
   109ba:	e00d      	b.n	109d8 <_malloc_r+0xc8>
   109bc:	68e1      	ldr	r1, [r4, #12]
   109be:	2a00      	cmp	r2, #0
   109c0:	f280 815a 	bge.w	10c78 <_malloc_r+0x368>
   109c4:	460c      	mov	r4, r1
   109c6:	458c      	cmp	ip, r1
   109c8:	d006      	beq.n	109d8 <_malloc_r+0xc8>
   109ca:	6863      	ldr	r3, [r4, #4]
   109cc:	f023 0303 	bic.w	r3, r3, #3
   109d0:	1b5a      	subs	r2, r3, r5
   109d2:	2a0f      	cmp	r2, #15
   109d4:	ddf2      	ble.n	109bc <_malloc_r+0xac>
   109d6:	4670      	mov	r0, lr
   109d8:	f8df 84bc 	ldr.w	r8, [pc, #1212]	@ 10e98 <_malloc_r+0x588>
   109dc:	6934      	ldr	r4, [r6, #16]
   109de:	4544      	cmp	r4, r8
   109e0:	bf08      	it	eq
   109e2:	f8d6 e004 	ldreq.w	lr, [r6, #4]
   109e6:	d028      	beq.n	10a3a <_malloc_r+0x12a>
   109e8:	6863      	ldr	r3, [r4, #4]
   109ea:	f023 0c03 	bic.w	ip, r3, #3
   109ee:	ebac 0305 	sub.w	r3, ip, r5
   109f2:	2b0f      	cmp	r3, #15
   109f4:	f300 81ad 	bgt.w	10d52 <_malloc_r+0x442>
   109f8:	2b00      	cmp	r3, #0
   109fa:	e9c6 8804 	strd	r8, r8, [r6, #16]
   109fe:	f280 819c 	bge.w	10d3a <_malloc_r+0x42a>
   10a02:	f8d6 e004 	ldr.w	lr, [r6, #4]
   10a06:	f5bc 7f00 	cmp.w	ip, #512	@ 0x200
   10a0a:	f080 8142 	bcs.w	10c92 <_malloc_r+0x382>
   10a0e:	ea4f 03dc 	mov.w	r3, ip, lsr #3
   10a12:	2201      	movs	r2, #1
   10a14:	3301      	adds	r3, #1
   10a16:	ea4f 1c5c 	mov.w	ip, ip, lsr #5
   10a1a:	fa02 f20c 	lsl.w	r2, r2, ip
   10a1e:	f856 1033 	ldr.w	r1, [r6, r3, lsl #3]
   10a22:	ea4e 0e02 	orr.w	lr, lr, r2
   10a26:	eb06 02c3 	add.w	r2, r6, r3, lsl #3
   10a2a:	60a1      	str	r1, [r4, #8]
   10a2c:	3a08      	subs	r2, #8
   10a2e:	f8c6 e004 	str.w	lr, [r6, #4]
   10a32:	60e2      	str	r2, [r4, #12]
   10a34:	f846 4033 	str.w	r4, [r6, r3, lsl #3]
   10a38:	60cc      	str	r4, [r1, #12]
   10a3a:	1083      	asrs	r3, r0, #2
   10a3c:	f04f 0c01 	mov.w	ip, #1
   10a40:	fa0c fc03 	lsl.w	ip, ip, r3
   10a44:	45f4      	cmp	ip, lr
   10a46:	d831      	bhi.n	10aac <_malloc_r+0x19c>
   10a48:	ea1c 0f0e 	tst.w	ip, lr
   10a4c:	d107      	bne.n	10a5e <_malloc_r+0x14e>
   10a4e:	f020 0003 	bic.w	r0, r0, #3
   10a52:	ea4f 0c4c 	mov.w	ip, ip, lsl #1
   10a56:	3004      	adds	r0, #4
   10a58:	ea1c 0f0e 	tst.w	ip, lr
   10a5c:	d0f9      	beq.n	10a52 <_malloc_r+0x142>
   10a5e:	eb06 0ac0 	add.w	sl, r6, r0, lsl #3
   10a62:	4681      	mov	r9, r0
   10a64:	46d6      	mov	lr, sl
   10a66:	f8de 300c 	ldr.w	r3, [lr, #12]
   10a6a:	e00b      	b.n	10a84 <_malloc_r+0x174>
   10a6c:	685a      	ldr	r2, [r3, #4]
   10a6e:	461c      	mov	r4, r3
   10a70:	68db      	ldr	r3, [r3, #12]
   10a72:	f022 0203 	bic.w	r2, r2, #3
   10a76:	1b51      	subs	r1, r2, r5
   10a78:	290f      	cmp	r1, #15
   10a7a:	f300 8136 	bgt.w	10cea <_malloc_r+0x3da>
   10a7e:	2900      	cmp	r1, #0
   10a80:	f280 814a 	bge.w	10d18 <_malloc_r+0x408>
   10a84:	459e      	cmp	lr, r3
   10a86:	d1f1      	bne.n	10a6c <_malloc_r+0x15c>
   10a88:	f109 0901 	add.w	r9, r9, #1
   10a8c:	f10e 0e08 	add.w	lr, lr, #8
   10a90:	f019 0f03 	tst.w	r9, #3
   10a94:	d1e7      	bne.n	10a66 <_malloc_r+0x156>
   10a96:	e180      	b.n	10d9a <_malloc_r+0x48a>
   10a98:	230c      	movs	r3, #12
   10a9a:	603b      	str	r3, [r7, #0]
   10a9c:	2400      	movs	r4, #0
   10a9e:	e762      	b.n	10966 <_malloc_r+0x56>
   10aa0:	f44f 7300 	mov.w	r3, #512	@ 0x200
   10aa4:	2040      	movs	r0, #64	@ 0x40
   10aa6:	f04f 0e3f 	mov.w	lr, #63	@ 0x3f
   10aaa:	e77c      	b.n	109a6 <_malloc_r+0x96>
   10aac:	68b4      	ldr	r4, [r6, #8]
   10aae:	6863      	ldr	r3, [r4, #4]
   10ab0:	f023 0903 	bic.w	r9, r3, #3
   10ab4:	45a9      	cmp	r9, r5
   10ab6:	eba9 0305 	sub.w	r3, r9, r5
   10aba:	bf2c      	ite	cs
   10abc:	2200      	movcs	r2, #0
   10abe:	2201      	movcc	r2, #1
   10ac0:	2b0f      	cmp	r3, #15
   10ac2:	bfd8      	it	le
   10ac4:	f042 0201 	orrle.w	r2, r2, #1
   10ac8:	2a00      	cmp	r2, #0
   10aca:	f000 80c4 	beq.w	10c56 <_malloc_r+0x346>
   10ace:	f642 3354 	movw	r3, #11092	@ 0x2b54
   10ad2:	f2c0 0301 	movt	r3, #1
   10ad6:	2008      	movs	r0, #8
   10ad8:	681b      	ldr	r3, [r3, #0]
   10ada:	f103 0810 	add.w	r8, r3, #16
   10ade:	eb04 0309 	add.w	r3, r4, r9
   10ae2:	9300      	str	r3, [sp, #0]
   10ae4:	f000 fa56 	bl	10f94 <sysconf>
   10ae8:	f241 53cc 	movw	r3, #5580	@ 0x15cc
   10aec:	f2c0 0301 	movt	r3, #1
   10af0:	44a8      	add	r8, r5
   10af2:	4683      	mov	fp, r0
   10af4:	9301      	str	r3, [sp, #4]
   10af6:	681a      	ldr	r2, [r3, #0]
   10af8:	3201      	adds	r2, #1
   10afa:	bf1e      	ittt	ne
   10afc:	f108 38ff 	addne.w	r8, r8, #4294967295	@ 0xffffffff
   10b00:	4242      	negne	r2, r0
   10b02:	4480      	addne	r8, r0
   10b04:	4638      	mov	r0, r7
   10b06:	bf18      	it	ne
   10b08:	ea02 0808 	andne.w	r8, r2, r8
   10b0c:	4641      	mov	r1, r8
   10b0e:	f7ff fad7 	bl	100c0 <_sbrk_r>
   10b12:	9b01      	ldr	r3, [sp, #4]
   10b14:	4682      	mov	sl, r0
   10b16:	f1b0 3fff 	cmp.w	r0, #4294967295	@ 0xffffffff
   10b1a:	f000 808b 	beq.w	10c34 <_malloc_r+0x324>
   10b1e:	9a00      	ldr	r2, [sp, #0]
   10b20:	4282      	cmp	r2, r0
   10b22:	d962      	bls.n	10bea <_malloc_r+0x2da>
   10b24:	42b4      	cmp	r4, r6
   10b26:	f040 8085 	bne.w	10c34 <_malloc_r+0x324>
   10b2a:	f642 3224 	movw	r2, #11044	@ 0x2b24
   10b2e:	f2c0 0201 	movt	r2, #1
   10b32:	f10b 3cff 	add.w	ip, fp, #4294967295	@ 0xffffffff
   10b36:	6810      	ldr	r0, [r2, #0]
   10b38:	eb00 0e08 	add.w	lr, r0, r8
   10b3c:	f8c2 e000 	str.w	lr, [r2]
   10b40:	6819      	ldr	r1, [r3, #0]
   10b42:	3101      	adds	r1, #1
   10b44:	bf0f      	iteee	eq
   10b46:	f8c3 a000 	streq.w	sl, [r3]
   10b4a:	9b00      	ldrne	r3, [sp, #0]
   10b4c:	ebaa 0303 	subne.w	r3, sl, r3
   10b50:	4473      	addne	r3, lr
   10b52:	bf18      	it	ne
   10b54:	6013      	strne	r3, [r2, #0]
   10b56:	f01a 0307 	ands.w	r3, sl, #7
   10b5a:	e9cd 3200 	strd	r3, r2, [sp]
   10b5e:	f000 8140 	beq.w	10de2 <_malloc_r+0x4d2>
   10b62:	f1c3 0308 	rsb	r3, r3, #8
   10b66:	4638      	mov	r0, r7
   10b68:	449a      	add	sl, r3
   10b6a:	445b      	add	r3, fp
   10b6c:	44d0      	add	r8, sl
   10b6e:	ea08 010c 	and.w	r1, r8, ip
   10b72:	1a5b      	subs	r3, r3, r1
   10b74:	ea03 0b0c 	and.w	fp, r3, ip
   10b78:	4659      	mov	r1, fp
   10b7a:	f7ff faa1 	bl	100c0 <_sbrk_r>
   10b7e:	1c42      	adds	r2, r0, #1
   10b80:	9a01      	ldr	r2, [sp, #4]
   10b82:	f000 8169 	beq.w	10e58 <_malloc_r+0x548>
   10b86:	eba0 000a 	sub.w	r0, r0, sl
   10b8a:	eb00 080b 	add.w	r8, r0, fp
   10b8e:	6811      	ldr	r1, [r2, #0]
   10b90:	f048 0301 	orr.w	r3, r8, #1
   10b94:	f8c6 a008 	str.w	sl, [r6, #8]
   10b98:	42b4      	cmp	r4, r6
   10b9a:	4459      	add	r1, fp
   10b9c:	f8ca 3004 	str.w	r3, [sl, #4]
   10ba0:	6011      	str	r1, [r2, #0]
   10ba2:	d037      	beq.n	10c14 <_malloc_r+0x304>
   10ba4:	f1b9 0f0f 	cmp.w	r9, #15
   10ba8:	bf9c      	itt	ls
   10baa:	2301      	movls	r3, #1
   10bac:	f8ca 3004 	strls.w	r3, [sl, #4]
   10bb0:	f240 8109 	bls.w	10dc6 <_malloc_r+0x4b6>
   10bb4:	6860      	ldr	r0, [r4, #4]
   10bb6:	f1a9 030c 	sub.w	r3, r9, #12
   10bba:	f023 0307 	bic.w	r3, r3, #7
   10bbe:	f04f 0c05 	mov.w	ip, #5
   10bc2:	f000 0001 	and.w	r0, r0, #1
   10bc6:	2b0f      	cmp	r3, #15
   10bc8:	ea40 0003 	orr.w	r0, r0, r3
   10bcc:	6060      	str	r0, [r4, #4]
   10bce:	eb04 0003 	add.w	r0, r4, r3
   10bd2:	e9c0 cc01 	strd	ip, ip, [r0, #4]
   10bd6:	d91d      	bls.n	10c14 <_malloc_r+0x304>
   10bd8:	f104 0108 	add.w	r1, r4, #8
   10bdc:	4638      	mov	r0, r7
   10bde:	9200      	str	r2, [sp, #0]
   10be0:	f000 fb58 	bl	11294 <_free_r>
   10be4:	9a00      	ldr	r2, [sp, #0]
   10be6:	6811      	ldr	r1, [r2, #0]
   10be8:	e014      	b.n	10c14 <_malloc_r+0x304>
   10bea:	f642 3224 	movw	r2, #11044	@ 0x2b24
   10bee:	f2c0 0201 	movt	r2, #1
   10bf2:	f10b 3cff 	add.w	ip, fp, #4294967295	@ 0xffffffff
   10bf6:	6811      	ldr	r1, [r2, #0]
   10bf8:	4441      	add	r1, r8
   10bfa:	6011      	str	r1, [r2, #0]
   10bfc:	468e      	mov	lr, r1
   10bfe:	d19f      	bne.n	10b40 <_malloc_r+0x230>
   10c00:	9800      	ldr	r0, [sp, #0]
   10c02:	ea10 0f0c 	tst.w	r0, ip
   10c06:	d19b      	bne.n	10b40 <_malloc_r+0x230>
   10c08:	68b2      	ldr	r2, [r6, #8]
   10c0a:	eb09 0308 	add.w	r3, r9, r8
   10c0e:	f043 0301 	orr.w	r3, r3, #1
   10c12:	6053      	str	r3, [r2, #4]
   10c14:	f642 3350 	movw	r3, #11088	@ 0x2b50
   10c18:	f2c0 0301 	movt	r3, #1
   10c1c:	681a      	ldr	r2, [r3, #0]
   10c1e:	428a      	cmp	r2, r1
   10c20:	bf38      	it	cc
   10c22:	6019      	strcc	r1, [r3, #0]
   10c24:	f642 334c 	movw	r3, #11084	@ 0x2b4c
   10c28:	f2c0 0301 	movt	r3, #1
   10c2c:	681a      	ldr	r2, [r3, #0]
   10c2e:	428a      	cmp	r2, r1
   10c30:	bf38      	it	cc
   10c32:	6019      	strcc	r1, [r3, #0]
   10c34:	68b4      	ldr	r4, [r6, #8]
   10c36:	6862      	ldr	r2, [r4, #4]
   10c38:	f022 0203 	bic.w	r2, r2, #3
   10c3c:	4295      	cmp	r5, r2
   10c3e:	eba2 0305 	sub.w	r3, r2, r5
   10c42:	bf94      	ite	ls
   10c44:	2200      	movls	r2, #0
   10c46:	2201      	movhi	r2, #1
   10c48:	2b0f      	cmp	r3, #15
   10c4a:	bfd8      	it	le
   10c4c:	f042 0201 	orrle.w	r2, r2, #1
   10c50:	2a00      	cmp	r2, #0
   10c52:	f040 80b8 	bne.w	10dc6 <_malloc_r+0x4b6>
   10c56:	1962      	adds	r2, r4, r5
   10c58:	f043 0301 	orr.w	r3, r3, #1
   10c5c:	4638      	mov	r0, r7
   10c5e:	f045 0501 	orr.w	r5, r5, #1
   10c62:	3408      	adds	r4, #8
   10c64:	f844 5c04 	str.w	r5, [r4, #-4]
   10c68:	60b2      	str	r2, [r6, #8]
   10c6a:	6053      	str	r3, [r2, #4]
   10c6c:	f000 f9a6 	bl	10fbc <__malloc_unlock>
   10c70:	4620      	mov	r0, r4
   10c72:	b003      	add	sp, #12
   10c74:	e8bd 8ff0 	ldmia.w	sp!, {r4, r5, r6, r7, r8, r9, sl, fp, pc}
   10c78:	68a2      	ldr	r2, [r4, #8]
   10c7a:	4423      	add	r3, r4
   10c7c:	4638      	mov	r0, r7
   10c7e:	60d1      	str	r1, [r2, #12]
   10c80:	608a      	str	r2, [r1, #8]
   10c82:	e669      	b.n	10958 <_malloc_r+0x48>
   10c84:	68dc      	ldr	r4, [r3, #12]
   10c86:	42a3      	cmp	r3, r4
   10c88:	bf08      	it	eq
   10c8a:	3002      	addeq	r0, #2
   10c8c:	f43f aea4 	beq.w	109d8 <_malloc_r+0xc8>
   10c90:	e659      	b.n	10946 <_malloc_r+0x36>
   10c92:	ea4f 225c 	mov.w	r2, ip, lsr #9
   10c96:	f5bc 6f20 	cmp.w	ip, #2560	@ 0xa00
   10c9a:	d36c      	bcc.n	10d76 <_malloc_r+0x466>
   10c9c:	2a14      	cmp	r2, #20
   10c9e:	f200 80b3 	bhi.w	10e08 <_malloc_r+0x4f8>
   10ca2:	f102 035c 	add.w	r3, r2, #92	@ 0x5c
   10ca6:	325b      	adds	r2, #91	@ 0x5b
   10ca8:	00db      	lsls	r3, r3, #3
   10caa:	18f1      	adds	r1, r6, r3
   10cac:	58f3      	ldr	r3, [r6, r3]
   10cae:	3908      	subs	r1, #8
   10cb0:	4299      	cmp	r1, r3
   10cb2:	d103      	bne.n	10cbc <_malloc_r+0x3ac>
   10cb4:	e08b      	b.n	10dce <_malloc_r+0x4be>
   10cb6:	689b      	ldr	r3, [r3, #8]
   10cb8:	4299      	cmp	r1, r3
   10cba:	d004      	beq.n	10cc6 <_malloc_r+0x3b6>
   10cbc:	685a      	ldr	r2, [r3, #4]
   10cbe:	f022 0203 	bic.w	r2, r2, #3
   10cc2:	4562      	cmp	r2, ip
   10cc4:	d8f7      	bhi.n	10cb6 <_malloc_r+0x3a6>
   10cc6:	68d9      	ldr	r1, [r3, #12]
   10cc8:	e9c4 3102 	strd	r3, r1, [r4, #8]
   10ccc:	608c      	str	r4, [r1, #8]
   10cce:	60dc      	str	r4, [r3, #12]
   10cd0:	e6b3      	b.n	10a3a <_malloc_r+0x12a>
   10cd2:	2b14      	cmp	r3, #20
   10cd4:	d956      	bls.n	10d84 <_malloc_r+0x474>
   10cd6:	2b54      	cmp	r3, #84	@ 0x54
   10cd8:	f200 809f 	bhi.w	10e1a <_malloc_r+0x50a>
   10cdc:	0b2b      	lsrs	r3, r5, #12
   10cde:	f103 006f 	add.w	r0, r3, #111	@ 0x6f
   10ce2:	f103 0e6e 	add.w	lr, r3, #110	@ 0x6e
   10ce6:	00c3      	lsls	r3, r0, #3
   10ce8:	e65d      	b.n	109a6 <_malloc_r+0x96>
   10cea:	f8d4 c008 	ldr.w	ip, [r4, #8]
   10cee:	4638      	mov	r0, r7
   10cf0:	1967      	adds	r7, r4, r5
   10cf2:	f045 0501 	orr.w	r5, r5, #1
   10cf6:	6065      	str	r5, [r4, #4]
   10cf8:	f8cc 300c 	str.w	r3, [ip, #12]
   10cfc:	f8c3 c008 	str.w	ip, [r3, #8]
   10d00:	f041 0301 	orr.w	r3, r1, #1
   10d04:	e9c6 7704 	strd	r7, r7, [r6, #16]
   10d08:	e9c7 8802 	strd	r8, r8, [r7, #8]
   10d0c:	607b      	str	r3, [r7, #4]
   10d0e:	50a1      	str	r1, [r4, r2]
   10d10:	3408      	adds	r4, #8
   10d12:	f000 f953 	bl	10fbc <__malloc_unlock>
   10d16:	e626      	b.n	10966 <_malloc_r+0x56>
   10d18:	4422      	add	r2, r4
   10d1a:	4638      	mov	r0, r7
   10d1c:	6851      	ldr	r1, [r2, #4]
   10d1e:	f041 0101 	orr.w	r1, r1, #1
   10d22:	6051      	str	r1, [r2, #4]
   10d24:	f854 2f08 	ldr.w	r2, [r4, #8]!
   10d28:	60d3      	str	r3, [r2, #12]
   10d2a:	609a      	str	r2, [r3, #8]
   10d2c:	f000 f946 	bl	10fbc <__malloc_unlock>
   10d30:	e619      	b.n	10966 <_malloc_r+0x56>
   10d32:	08e8      	lsrs	r0, r5, #3
   10d34:	f105 0308 	add.w	r3, r5, #8
   10d38:	e5fa      	b.n	10930 <_malloc_r+0x20>
   10d3a:	44a4      	add	ip, r4
   10d3c:	4638      	mov	r0, r7
   10d3e:	3408      	adds	r4, #8
   10d40:	f8dc 3004 	ldr.w	r3, [ip, #4]
   10d44:	f043 0301 	orr.w	r3, r3, #1
   10d48:	f8cc 3004 	str.w	r3, [ip, #4]
   10d4c:	f000 f936 	bl	10fbc <__malloc_unlock>
   10d50:	e609      	b.n	10966 <_malloc_r+0x56>
   10d52:	1962      	adds	r2, r4, r5
   10d54:	f043 0101 	orr.w	r1, r3, #1
   10d58:	4638      	mov	r0, r7
   10d5a:	f045 0501 	orr.w	r5, r5, #1
   10d5e:	6065      	str	r5, [r4, #4]
   10d60:	e9c6 2204 	strd	r2, r2, [r6, #16]
   10d64:	e9c2 8802 	strd	r8, r8, [r2, #8]
   10d68:	6051      	str	r1, [r2, #4]
   10d6a:	f844 300c 	str.w	r3, [r4, ip]
   10d6e:	3408      	adds	r4, #8
   10d70:	f000 f924 	bl	10fbc <__malloc_unlock>
   10d74:	e5f7      	b.n	10966 <_malloc_r+0x56>
   10d76:	ea4f 129c 	mov.w	r2, ip, lsr #6
   10d7a:	f102 0339 	add.w	r3, r2, #57	@ 0x39
   10d7e:	3238      	adds	r2, #56	@ 0x38
   10d80:	00db      	lsls	r3, r3, #3
   10d82:	e792      	b.n	10caa <_malloc_r+0x39a>
   10d84:	f103 005c 	add.w	r0, r3, #92	@ 0x5c
   10d88:	f103 0e5b 	add.w	lr, r3, #91	@ 0x5b
   10d8c:	00c3      	lsls	r3, r0, #3
   10d8e:	e60a      	b.n	109a6 <_malloc_r+0x96>
   10d90:	f85a 3908 	ldr.w	r3, [sl], #-8
   10d94:	3801      	subs	r0, #1
   10d96:	4553      	cmp	r3, sl
   10d98:	d17b      	bne.n	10e92 <_malloc_r+0x582>
   10d9a:	0781      	lsls	r1, r0, #30
   10d9c:	d1f8      	bne.n	10d90 <_malloc_r+0x480>
   10d9e:	6873      	ldr	r3, [r6, #4]
   10da0:	ea23 030c 	bic.w	r3, r3, ip
   10da4:	6073      	str	r3, [r6, #4]
   10da6:	ea4f 0c4c 	mov.w	ip, ip, lsl #1
   10daa:	f10c 32ff 	add.w	r2, ip, #4294967295	@ 0xffffffff
   10dae:	429a      	cmp	r2, r3
   10db0:	d304      	bcc.n	10dbc <_malloc_r+0x4ac>
   10db2:	e67b      	b.n	10aac <_malloc_r+0x19c>
   10db4:	ea4f 0c4c 	mov.w	ip, ip, lsl #1
   10db8:	f109 0904 	add.w	r9, r9, #4
   10dbc:	ea1c 0f03 	tst.w	ip, r3
   10dc0:	d0f8      	beq.n	10db4 <_malloc_r+0x4a4>
   10dc2:	4648      	mov	r0, r9
   10dc4:	e64b      	b.n	10a5e <_malloc_r+0x14e>
   10dc6:	4638      	mov	r0, r7
   10dc8:	f000 f8f8 	bl	10fbc <__malloc_unlock>
   10dcc:	e666      	b.n	10a9c <_malloc_r+0x18c>
   10dce:	1092      	asrs	r2, r2, #2
   10dd0:	f04f 0c01 	mov.w	ip, #1
   10dd4:	fa0c f202 	lsl.w	r2, ip, r2
   10dd8:	ea4e 0e02 	orr.w	lr, lr, r2
   10ddc:	f8c6 e004 	str.w	lr, [r6, #4]
   10de0:	e772      	b.n	10cc8 <_malloc_r+0x3b8>
   10de2:	eb0a 0308 	add.w	r3, sl, r8
   10de6:	4638      	mov	r0, r7
   10de8:	ea03 030c 	and.w	r3, r3, ip
   10dec:	ebab 0b03 	sub.w	fp, fp, r3
   10df0:	ea0b 0b0c 	and.w	fp, fp, ip
   10df4:	4659      	mov	r1, fp
   10df6:	f7ff f963 	bl	100c0 <_sbrk_r>
   10dfa:	9a01      	ldr	r2, [sp, #4]
   10dfc:	1c43      	adds	r3, r0, #1
   10dfe:	f47f aec2 	bne.w	10b86 <_malloc_r+0x276>
   10e02:	f8dd b000 	ldr.w	fp, [sp]
   10e06:	e6c2      	b.n	10b8e <_malloc_r+0x27e>
   10e08:	2a54      	cmp	r2, #84	@ 0x54
   10e0a:	d810      	bhi.n	10e2e <_malloc_r+0x51e>
   10e0c:	ea4f 321c 	mov.w	r2, ip, lsr #12
   10e10:	f102 036f 	add.w	r3, r2, #111	@ 0x6f
   10e14:	326e      	adds	r2, #110	@ 0x6e
   10e16:	00db      	lsls	r3, r3, #3
   10e18:	e747      	b.n	10caa <_malloc_r+0x39a>
   10e1a:	f5b3 7faa 	cmp.w	r3, #340	@ 0x154
   10e1e:	d810      	bhi.n	10e42 <_malloc_r+0x532>
   10e20:	0beb      	lsrs	r3, r5, #15
   10e22:	f103 0078 	add.w	r0, r3, #120	@ 0x78
   10e26:	f103 0e77 	add.w	lr, r3, #119	@ 0x77
   10e2a:	00c3      	lsls	r3, r0, #3
   10e2c:	e5bb      	b.n	109a6 <_malloc_r+0x96>
   10e2e:	f5b2 7faa 	cmp.w	r2, #340	@ 0x154
   10e32:	d819      	bhi.n	10e68 <_malloc_r+0x558>
   10e34:	ea4f 32dc 	mov.w	r2, ip, lsr #15
   10e38:	f102 0378 	add.w	r3, r2, #120	@ 0x78
   10e3c:	3277      	adds	r2, #119	@ 0x77
   10e3e:	00db      	lsls	r3, r3, #3
   10e40:	e733      	b.n	10caa <_malloc_r+0x39a>
   10e42:	f240 5254 	movw	r2, #1364	@ 0x554
   10e46:	4293      	cmp	r3, r2
   10e48:	d81d      	bhi.n	10e86 <_malloc_r+0x576>
   10e4a:	0cab      	lsrs	r3, r5, #18
   10e4c:	f103 007d 	add.w	r0, r3, #125	@ 0x7d
   10e50:	f103 0e7c 	add.w	lr, r3, #124	@ 0x7c
   10e54:	00c3      	lsls	r3, r0, #3
   10e56:	e5a6      	b.n	109a6 <_malloc_r+0x96>
   10e58:	9b00      	ldr	r3, [sp, #0]
   10e5a:	f04f 0b00 	mov.w	fp, #0
   10e5e:	3b08      	subs	r3, #8
   10e60:	4498      	add	r8, r3
   10e62:	eba8 080a 	sub.w	r8, r8, sl
   10e66:	e692      	b.n	10b8e <_malloc_r+0x27e>
   10e68:	f240 5354 	movw	r3, #1364	@ 0x554
   10e6c:	429a      	cmp	r2, r3
   10e6e:	bf95      	itete	ls
   10e70:	ea4f 429c 	movls.w	r2, ip, lsr #18
   10e74:	f44f 737e 	movhi.w	r3, #1016	@ 0x3f8
   10e78:	f102 037d 	addls.w	r3, r2, #125	@ 0x7d
   10e7c:	227e      	movhi	r2, #126	@ 0x7e
   10e7e:	bf9c      	itt	ls
   10e80:	327c      	addls	r2, #124	@ 0x7c
   10e82:	00db      	lslls	r3, r3, #3
   10e84:	e711      	b.n	10caa <_malloc_r+0x39a>
   10e86:	f44f 737e 	mov.w	r3, #1016	@ 0x3f8
   10e8a:	207f      	movs	r0, #127	@ 0x7f
   10e8c:	f04f 0e7e 	mov.w	lr, #126	@ 0x7e
   10e90:	e589      	b.n	109a6 <_malloc_r+0x96>
   10e92:	6873      	ldr	r3, [r6, #4]
   10e94:	e787      	b.n	10da6 <_malloc_r+0x496>
   10e96:	bf00      	nop
   10e98:	000115e0 	andeq	r1, r1, r0, ror #11

Disassembly of section .text.__retarget_lock_init:

00010e9c <__retarget_lock_init>:
   10e9c:	4770      	bx	lr
   10e9e:	bf00      	nop

Disassembly of section .text.__retarget_lock_init_recursive:

00010ea0 <__retarget_lock_init_recursive>:
   10ea0:	4770      	bx	lr
   10ea2:	bf00      	nop

Disassembly of section .text.__retarget_lock_close:

00010ea4 <__retarget_lock_close>:
   10ea4:	4770      	bx	lr
   10ea6:	bf00      	nop

Disassembly of section .text.__retarget_lock_close_recursive:

00010ea8 <__retarget_lock_close_recursive>:
   10ea8:	4770      	bx	lr
   10eaa:	bf00      	nop

Disassembly of section .text.__retarget_lock_acquire:

00010eac <__retarget_lock_acquire>:
   10eac:	4770      	bx	lr
   10eae:	bf00      	nop

Disassembly of section .text.__retarget_lock_acquire_recursive:

00010eb0 <__retarget_lock_acquire_recursive>:
   10eb0:	4770      	bx	lr
   10eb2:	bf00      	nop

Disassembly of section .text.__retarget_lock_try_acquire:

00010eb4 <__retarget_lock_try_acquire>:
   10eb4:	2001      	movs	r0, #1
   10eb6:	4770      	bx	lr

Disassembly of section .text.__retarget_lock_try_acquire_recursive:

00010eb8 <__retarget_lock_try_acquire_recursive>:
   10eb8:	2001      	movs	r0, #1
   10eba:	4770      	bx	lr

Disassembly of section .text.__retarget_lock_release:

00010ebc <__retarget_lock_release>:
   10ebc:	4770      	bx	lr
   10ebe:	bf00      	nop

Disassembly of section .text.__retarget_lock_release_recursive:

00010ec0 <__retarget_lock_release_recursive>:
   10ec0:	4770      	bx	lr
   10ec2:	bf00      	nop

Disassembly of section .text._fclose_r:

00010ec4 <_fclose_r>:
   10ec4:	b570      	push	{r4, r5, r6, lr}
   10ec6:	2900      	cmp	r1, #0
   10ec8:	d03f      	beq.n	10f4a <_fclose_r+0x86>
   10eca:	4606      	mov	r6, r0
   10ecc:	460c      	mov	r4, r1
   10ece:	b110      	cbz	r0, 10ed6 <_fclose_r+0x12>
   10ed0:	6b43      	ldr	r3, [r0, #52]	@ 0x34
   10ed2:	2b00      	cmp	r3, #0
   10ed4:	d03c      	beq.n	10f50 <_fclose_r+0x8c>
   10ed6:	6e63      	ldr	r3, [r4, #100]	@ 0x64
   10ed8:	f9b4 200c 	ldrsh.w	r2, [r4, #12]
   10edc:	07dd      	lsls	r5, r3, #31
   10ede:	d432      	bmi.n	10f46 <_fclose_r+0x82>
   10ee0:	0590      	lsls	r0, r2, #22
   10ee2:	d538      	bpl.n	10f56 <_fclose_r+0x92>
   10ee4:	4621      	mov	r1, r4
   10ee6:	4630      	mov	r0, r6
   10ee8:	f000 f86e 	bl	10fc8 <__sflush_r>
   10eec:	6ae3      	ldr	r3, [r4, #44]	@ 0x2c
   10eee:	4605      	mov	r5, r0
   10ef0:	b133      	cbz	r3, 10f00 <_fclose_r+0x3c>
   10ef2:	69e1      	ldr	r1, [r4, #28]
   10ef4:	4630      	mov	r0, r6
   10ef6:	4798      	blx	r3
   10ef8:	2800      	cmp	r0, #0
   10efa:	bfb8      	it	lt
   10efc:	f04f 35ff 	movlt.w	r5, #4294967295	@ 0xffffffff
   10f00:	89a3      	ldrh	r3, [r4, #12]
   10f02:	061a      	lsls	r2, r3, #24
   10f04:	d439      	bmi.n	10f7a <_fclose_r+0xb6>
   10f06:	6b21      	ldr	r1, [r4, #48]	@ 0x30
   10f08:	b141      	cbz	r1, 10f1c <_fclose_r+0x58>
   10f0a:	f104 0340 	add.w	r3, r4, #64	@ 0x40
   10f0e:	4299      	cmp	r1, r3
   10f10:	d002      	beq.n	10f18 <_fclose_r+0x54>
   10f12:	4630      	mov	r0, r6
   10f14:	f000 f9be 	bl	11294 <_free_r>
   10f18:	2300      	movs	r3, #0
   10f1a:	6323      	str	r3, [r4, #48]	@ 0x30
   10f1c:	6c61      	ldr	r1, [r4, #68]	@ 0x44
   10f1e:	b121      	cbz	r1, 10f2a <_fclose_r+0x66>
   10f20:	4630      	mov	r0, r6
   10f22:	f000 f9b7 	bl	11294 <_free_r>
   10f26:	2300      	movs	r3, #0
   10f28:	6463      	str	r3, [r4, #68]	@ 0x44
   10f2a:	f7ff fc51 	bl	107d0 <__sfp_lock_acquire>
   10f2e:	6e63      	ldr	r3, [r4, #100]	@ 0x64
   10f30:	2200      	movs	r2, #0
   10f32:	81a2      	strh	r2, [r4, #12]
   10f34:	07db      	lsls	r3, r3, #31
   10f36:	d51c      	bpl.n	10f72 <_fclose_r+0xae>
   10f38:	6da0      	ldr	r0, [r4, #88]	@ 0x58
   10f3a:	f7ff ffb5 	bl	10ea8 <__retarget_lock_close_recursive>
   10f3e:	f7ff fc4d 	bl	107dc <__sfp_lock_release>
   10f42:	4628      	mov	r0, r5
   10f44:	bd70      	pop	{r4, r5, r6, pc}
   10f46:	2a00      	cmp	r2, #0
   10f48:	d1cc      	bne.n	10ee4 <_fclose_r+0x20>
   10f4a:	2500      	movs	r5, #0
   10f4c:	4628      	mov	r0, r5
   10f4e:	bd70      	pop	{r4, r5, r6, pc}
   10f50:	f7ff fc16 	bl	10780 <__sinit>
   10f54:	e7bf      	b.n	10ed6 <_fclose_r+0x12>
   10f56:	6da0      	ldr	r0, [r4, #88]	@ 0x58
   10f58:	f7ff ffaa 	bl	10eb0 <__retarget_lock_acquire_recursive>
   10f5c:	f9b4 300c 	ldrsh.w	r3, [r4, #12]
   10f60:	2b00      	cmp	r3, #0
   10f62:	d1bf      	bne.n	10ee4 <_fclose_r+0x20>
   10f64:	6e63      	ldr	r3, [r4, #100]	@ 0x64
   10f66:	07d9      	lsls	r1, r3, #31
   10f68:	d4ef      	bmi.n	10f4a <_fclose_r+0x86>
   10f6a:	6da0      	ldr	r0, [r4, #88]	@ 0x58
   10f6c:	f7ff ffa8 	bl	10ec0 <__retarget_lock_release_recursive>
   10f70:	e7eb      	b.n	10f4a <_fclose_r+0x86>
   10f72:	6da0      	ldr	r0, [r4, #88]	@ 0x58
   10f74:	f7ff ffa4 	bl	10ec0 <__retarget_lock_release_recursive>
   10f78:	e7de      	b.n	10f38 <_fclose_r+0x74>
   10f7a:	6921      	ldr	r1, [r4, #16]
   10f7c:	4630      	mov	r0, r6
   10f7e:	f000 f989 	bl	11294 <_free_r>
   10f82:	e7c0      	b.n	10f06 <_fclose_r+0x42>

Disassembly of section .text.fclose:

00010f84 <fclose>:
   10f84:	f241 439c 	movw	r3, #5276	@ 0x149c
   10f88:	f2c0 0301 	movt	r3, #1
   10f8c:	4601      	mov	r1, r0
   10f8e:	6818      	ldr	r0, [r3, #0]
   10f90:	f7ff bf98 	b.w	10ec4 <_fclose_r>

Disassembly of section .text.sysconf:

00010f94 <sysconf>:
   10f94:	2808      	cmp	r0, #8
   10f96:	d102      	bne.n	10f9e <sysconf+0xa>
   10f98:	f44f 5080 	mov.w	r0, #4096	@ 0x1000
   10f9c:	4770      	bx	lr
   10f9e:	b508      	push	{r3, lr}
   10fa0:	f7ff fa66 	bl	10470 <__errno>
   10fa4:	4603      	mov	r3, r0
   10fa6:	2216      	movs	r2, #22
   10fa8:	f04f 30ff 	mov.w	r0, #4294967295	@ 0xffffffff
   10fac:	601a      	str	r2, [r3, #0]
   10fae:	bd08      	pop	{r3, pc}

Disassembly of section .text.__malloc_lock:

00010fb0 <__malloc_lock>:
   10fb0:	f642 3068 	movw	r0, #11112	@ 0x2b68
   10fb4:	f2c0 0001 	movt	r0, #1
   10fb8:	f7ff bf7a 	b.w	10eb0 <__retarget_lock_acquire_recursive>

Disassembly of section .text.__malloc_unlock:

00010fbc <__malloc_unlock>:
   10fbc:	f642 3068 	movw	r0, #11112	@ 0x2b68
   10fc0:	f2c0 0001 	movt	r0, #1
   10fc4:	f7ff bf7c 	b.w	10ec0 <__retarget_lock_release_recursive>

Disassembly of section .text.__sflush_r:

00010fc8 <__sflush_r>:
   10fc8:	f9b1 200c 	ldrsh.w	r2, [r1, #12]
   10fcc:	e92d 41f0 	stmdb	sp!, {r4, r5, r6, r7, r8, lr}
   10fd0:	460c      	mov	r4, r1
   10fd2:	4680      	mov	r8, r0
   10fd4:	0716      	lsls	r6, r2, #28
   10fd6:	d447      	bmi.n	11068 <__sflush_r+0xa0>
   10fd8:	6849      	ldr	r1, [r1, #4]
   10fda:	f442 6300 	orr.w	r3, r2, #2048	@ 0x800
   10fde:	81a3      	strh	r3, [r4, #12]
   10fe0:	2900      	cmp	r1, #0
   10fe2:	dd65      	ble.n	110b0 <__sflush_r+0xe8>
   10fe4:	6aa5      	ldr	r5, [r4, #40]	@ 0x28
   10fe6:	2d00      	cmp	r5, #0
   10fe8:	d03b      	beq.n	11062 <__sflush_r+0x9a>
   10fea:	f412 5280 	ands.w	r2, r2, #4096	@ 0x1000
   10fee:	f04f 0100 	mov.w	r1, #0
   10ff2:	f8d8 6000 	ldr.w	r6, [r8]
   10ff6:	f8c8 1000 	str.w	r1, [r8]
   10ffa:	bf18      	it	ne
   10ffc:	6d22      	ldrne	r2, [r4, #80]	@ 0x50
   10ffe:	69e1      	ldr	r1, [r4, #28]
   11000:	d109      	bne.n	11016 <__sflush_r+0x4e>
   11002:	2301      	movs	r3, #1
   11004:	4640      	mov	r0, r8
   11006:	47a8      	blx	r5
   11008:	4602      	mov	r2, r0
   1100a:	1c45      	adds	r5, r0, #1
   1100c:	d06d      	beq.n	110ea <__sflush_r+0x122>
   1100e:	f9b4 300c 	ldrsh.w	r3, [r4, #12]
   11012:	6aa5      	ldr	r5, [r4, #40]	@ 0x28
   11014:	69e1      	ldr	r1, [r4, #28]
   11016:	0758      	lsls	r0, r3, #29
   11018:	d505      	bpl.n	11026 <__sflush_r+0x5e>
   1101a:	6b23      	ldr	r3, [r4, #48]	@ 0x30
   1101c:	6860      	ldr	r0, [r4, #4]
   1101e:	1a12      	subs	r2, r2, r0
   11020:	b10b      	cbz	r3, 11026 <__sflush_r+0x5e>
   11022:	6be3      	ldr	r3, [r4, #60]	@ 0x3c
   11024:	1ad2      	subs	r2, r2, r3
   11026:	2300      	movs	r3, #0
   11028:	4640      	mov	r0, r8
   1102a:	47a8      	blx	r5
   1102c:	1c43      	adds	r3, r0, #1
   1102e:	d043      	beq.n	110b8 <__sflush_r+0xf0>
   11030:	f9b4 300c 	ldrsh.w	r3, [r4, #12]
   11034:	6922      	ldr	r2, [r4, #16]
   11036:	6022      	str	r2, [r4, #0]
   11038:	2200      	movs	r2, #0
   1103a:	6062      	str	r2, [r4, #4]
   1103c:	f423 6200 	bic.w	r2, r3, #2048	@ 0x800
   11040:	04db      	lsls	r3, r3, #19
   11042:	81a2      	strh	r2, [r4, #12]
   11044:	d500      	bpl.n	11048 <__sflush_r+0x80>
   11046:	6520      	str	r0, [r4, #80]	@ 0x50
   11048:	6b21      	ldr	r1, [r4, #48]	@ 0x30
   1104a:	f8c8 6000 	str.w	r6, [r8]
   1104e:	b141      	cbz	r1, 11062 <__sflush_r+0x9a>
   11050:	f104 0340 	add.w	r3, r4, #64	@ 0x40
   11054:	4299      	cmp	r1, r3
   11056:	d002      	beq.n	1105e <__sflush_r+0x96>
   11058:	4640      	mov	r0, r8
   1105a:	f000 f91b 	bl	11294 <_free_r>
   1105e:	2300      	movs	r3, #0
   11060:	6323      	str	r3, [r4, #48]	@ 0x30
   11062:	2000      	movs	r0, #0
   11064:	e8bd 81f0 	ldmia.w	sp!, {r4, r5, r6, r7, r8, pc}
   11068:	690e      	ldr	r6, [r1, #16]
   1106a:	2e00      	cmp	r6, #0
   1106c:	d0f9      	beq.n	11062 <__sflush_r+0x9a>
   1106e:	0792      	lsls	r2, r2, #30
   11070:	680d      	ldr	r5, [r1, #0]
   11072:	bf18      	it	ne
   11074:	2300      	movne	r3, #0
   11076:	600e      	str	r6, [r1, #0]
   11078:	bf08      	it	eq
   1107a:	694b      	ldreq	r3, [r1, #20]
   1107c:	1bad      	subs	r5, r5, r6
   1107e:	2d00      	cmp	r5, #0
   11080:	608b      	str	r3, [r1, #8]
   11082:	dc04      	bgt.n	1108e <__sflush_r+0xc6>
   11084:	e7ed      	b.n	11062 <__sflush_r+0x9a>
   11086:	1a2d      	subs	r5, r5, r0
   11088:	4406      	add	r6, r0
   1108a:	2d00      	cmp	r5, #0
   1108c:	dde9      	ble.n	11062 <__sflush_r+0x9a>
   1108e:	69e1      	ldr	r1, [r4, #28]
   11090:	462b      	mov	r3, r5
   11092:	6a67      	ldr	r7, [r4, #36]	@ 0x24
   11094:	4632      	mov	r2, r6
   11096:	4640      	mov	r0, r8
   11098:	47b8      	blx	r7
   1109a:	2800      	cmp	r0, #0
   1109c:	dcf3      	bgt.n	11086 <__sflush_r+0xbe>
   1109e:	f9b4 300c 	ldrsh.w	r3, [r4, #12]
   110a2:	f043 0340 	orr.w	r3, r3, #64	@ 0x40
   110a6:	f04f 30ff 	mov.w	r0, #4294967295	@ 0xffffffff
   110aa:	81a3      	strh	r3, [r4, #12]
   110ac:	e8bd 81f0 	ldmia.w	sp!, {r4, r5, r6, r7, r8, pc}
   110b0:	6be1      	ldr	r1, [r4, #60]	@ 0x3c
   110b2:	2900      	cmp	r1, #0
   110b4:	dc96      	bgt.n	10fe4 <__sflush_r+0x1c>
   110b6:	e7d4      	b.n	11062 <__sflush_r+0x9a>
   110b8:	f8d8 1000 	ldr.w	r1, [r8]
   110bc:	f9b4 300c 	ldrsh.w	r3, [r4, #12]
   110c0:	291d      	cmp	r1, #29
   110c2:	d8ee      	bhi.n	110a2 <__sflush_r+0xda>
   110c4:	2201      	movs	r2, #1
   110c6:	f2c2 0240 	movt	r2, #8256	@ 0x2040
   110ca:	40ca      	lsrs	r2, r1
   110cc:	07d7      	lsls	r7, r2, #31
   110ce:	d5e8      	bpl.n	110a2 <__sflush_r+0xda>
   110d0:	6922      	ldr	r2, [r4, #16]
   110d2:	04dd      	lsls	r5, r3, #19
   110d4:	6022      	str	r2, [r4, #0]
   110d6:	f423 6200 	bic.w	r2, r3, #2048	@ 0x800
   110da:	81a2      	strh	r2, [r4, #12]
   110dc:	f04f 0200 	mov.w	r2, #0
   110e0:	6062      	str	r2, [r4, #4]
   110e2:	d5b1      	bpl.n	11048 <__sflush_r+0x80>
   110e4:	2900      	cmp	r1, #0
   110e6:	d1af      	bne.n	11048 <__sflush_r+0x80>
   110e8:	e7ad      	b.n	11046 <__sflush_r+0x7e>
   110ea:	f8d8 3000 	ldr.w	r3, [r8]
   110ee:	2b00      	cmp	r3, #0
   110f0:	d08d      	beq.n	1100e <__sflush_r+0x46>
   110f2:	2b16      	cmp	r3, #22
   110f4:	bf18      	it	ne
   110f6:	2b1d      	cmpne	r3, #29
   110f8:	bf08      	it	eq
   110fa:	f8c8 6000 	streq.w	r6, [r8]
   110fe:	d0b0      	beq.n	11062 <__sflush_r+0x9a>
   11100:	e7cd      	b.n	1109e <__sflush_r+0xd6>
   11102:	bf00      	nop

Disassembly of section .text._fflush_r:

00011104 <_fflush_r>:
   11104:	b538      	push	{r3, r4, r5, lr}
   11106:	460c      	mov	r4, r1
   11108:	4605      	mov	r5, r0
   1110a:	b108      	cbz	r0, 11110 <_fflush_r+0xc>
   1110c:	6b43      	ldr	r3, [r0, #52]	@ 0x34
   1110e:	b303      	cbz	r3, 11152 <_fflush_r+0x4e>
   11110:	f9b4 000c 	ldrsh.w	r0, [r4, #12]
   11114:	b188      	cbz	r0, 1113a <_fflush_r+0x36>
   11116:	6e63      	ldr	r3, [r4, #100]	@ 0x64
   11118:	07db      	lsls	r3, r3, #31
   1111a:	d401      	bmi.n	11120 <_fflush_r+0x1c>
   1111c:	0581      	lsls	r1, r0, #22
   1111e:	d50f      	bpl.n	11140 <_fflush_r+0x3c>
   11120:	4628      	mov	r0, r5
   11122:	4621      	mov	r1, r4
   11124:	f7ff ff50 	bl	10fc8 <__sflush_r>
   11128:	6e63      	ldr	r3, [r4, #100]	@ 0x64
   1112a:	4605      	mov	r5, r0
   1112c:	07da      	lsls	r2, r3, #31
   1112e:	d402      	bmi.n	11136 <_fflush_r+0x32>
   11130:	89a3      	ldrh	r3, [r4, #12]
   11132:	059b      	lsls	r3, r3, #22
   11134:	d508      	bpl.n	11148 <_fflush_r+0x44>
   11136:	4628      	mov	r0, r5
   11138:	bd38      	pop	{r3, r4, r5, pc}
   1113a:	4605      	mov	r5, r0
   1113c:	4628      	mov	r0, r5
   1113e:	bd38      	pop	{r3, r4, r5, pc}
   11140:	6da0      	ldr	r0, [r4, #88]	@ 0x58
   11142:	f7ff feb5 	bl	10eb0 <__retarget_lock_acquire_recursive>
   11146:	e7eb      	b.n	11120 <_fflush_r+0x1c>
   11148:	6da0      	ldr	r0, [r4, #88]	@ 0x58
   1114a:	f7ff feb9 	bl	10ec0 <__retarget_lock_release_recursive>
   1114e:	4628      	mov	r0, r5
   11150:	bd38      	pop	{r3, r4, r5, pc}
   11152:	f7ff fb15 	bl	10780 <__sinit>
   11156:	e7db      	b.n	11110 <_fflush_r+0xc>

Disassembly of section .text.fflush:

00011158 <fflush>:
   11158:	b368      	cbz	r0, 111b6 <fflush+0x5e>
   1115a:	b538      	push	{r3, r4, r5, lr}
   1115c:	f241 439c 	movw	r3, #5276	@ 0x149c
   11160:	f2c0 0301 	movt	r3, #1
   11164:	4604      	mov	r4, r0
   11166:	681d      	ldr	r5, [r3, #0]
   11168:	b10d      	cbz	r5, 1116e <fflush+0x16>
   1116a:	6b6b      	ldr	r3, [r5, #52]	@ 0x34
   1116c:	b1bb      	cbz	r3, 1119e <fflush+0x46>
   1116e:	f9b4 000c 	ldrsh.w	r0, [r4, #12]
   11172:	b188      	cbz	r0, 11198 <fflush+0x40>
   11174:	6e63      	ldr	r3, [r4, #100]	@ 0x64
   11176:	07db      	lsls	r3, r3, #31
   11178:	d401      	bmi.n	1117e <fflush+0x26>
   1117a:	0581      	lsls	r1, r0, #22
   1117c:	d513      	bpl.n	111a6 <fflush+0x4e>
   1117e:	4628      	mov	r0, r5
   11180:	4621      	mov	r1, r4
   11182:	f7ff ff21 	bl	10fc8 <__sflush_r>
   11186:	6e63      	ldr	r3, [r4, #100]	@ 0x64
   11188:	4605      	mov	r5, r0
   1118a:	07da      	lsls	r2, r3, #31
   1118c:	d402      	bmi.n	11194 <fflush+0x3c>
   1118e:	89a3      	ldrh	r3, [r4, #12]
   11190:	059b      	lsls	r3, r3, #22
   11192:	d50c      	bpl.n	111ae <fflush+0x56>
   11194:	4628      	mov	r0, r5
   11196:	bd38      	pop	{r3, r4, r5, pc}
   11198:	4605      	mov	r5, r0
   1119a:	4628      	mov	r0, r5
   1119c:	bd38      	pop	{r3, r4, r5, pc}
   1119e:	4628      	mov	r0, r5
   111a0:	f7ff faee 	bl	10780 <__sinit>
   111a4:	e7e3      	b.n	1116e <fflush+0x16>
   111a6:	6da0      	ldr	r0, [r4, #88]	@ 0x58
   111a8:	f7ff fe82 	bl	10eb0 <__retarget_lock_acquire_recursive>
   111ac:	e7e7      	b.n	1117e <fflush+0x26>
   111ae:	6da0      	ldr	r0, [r4, #88]	@ 0x58
   111b0:	f7ff fe86 	bl	10ec0 <__retarget_lock_release_recursive>
   111b4:	e7ee      	b.n	11194 <fflush+0x3c>
   111b6:	f241 52c0 	movw	r2, #5568	@ 0x15c0
   111ba:	f2c0 0201 	movt	r2, #1
   111be:	f241 1105 	movw	r1, #4357	@ 0x1105
   111c2:	f2c0 0101 	movt	r1, #1
   111c6:	f241 40a0 	movw	r0, #5280	@ 0x14a0
   111ca:	f2c0 0001 	movt	r0, #1
   111ce:	f7ff bb7d 	b.w	108cc <_fwalk_sglue>
   111d2:	bf00      	nop

Disassembly of section .text._malloc_trim_r:

000111d4 <_malloc_trim_r>:
   111d4:	e92d 41f0 	stmdb	sp!, {r4, r5, r6, r7, r8, lr}
   111d8:	f241 58d8 	movw	r8, #5592	@ 0x15d8
   111dc:	f2c0 0801 	movt	r8, #1
   111e0:	4606      	mov	r6, r0
   111e2:	2008      	movs	r0, #8
   111e4:	460d      	mov	r5, r1
   111e6:	f7ff fed5 	bl	10f94 <sysconf>
   111ea:	4604      	mov	r4, r0
   111ec:	4630      	mov	r0, r6
   111ee:	f7ff fedf 	bl	10fb0 <__malloc_lock>
   111f2:	f8d8 3008 	ldr.w	r3, [r8, #8]
   111f6:	4621      	mov	r1, r4
   111f8:	685f      	ldr	r7, [r3, #4]
   111fa:	f027 0703 	bic.w	r7, r7, #3
   111fe:	f1a7 0011 	sub.w	r0, r7, #17
   11202:	1b40      	subs	r0, r0, r5
   11204:	4420      	add	r0, r4
   11206:	f7fe ffef 	bl	101e8 <__udivsi3>
   1120a:	1e45      	subs	r5, r0, #1
   1120c:	fb04 f505 	mul.w	r5, r4, r5
   11210:	42ac      	cmp	r4, r5
   11212:	dc08      	bgt.n	11226 <_malloc_trim_r+0x52>
   11214:	2100      	movs	r1, #0
   11216:	4630      	mov	r0, r6
   11218:	f7fe ff52 	bl	100c0 <_sbrk_r>
   1121c:	f8d8 3008 	ldr.w	r3, [r8, #8]
   11220:	443b      	add	r3, r7
   11222:	4298      	cmp	r0, r3
   11224:	d005      	beq.n	11232 <_malloc_trim_r+0x5e>
   11226:	4630      	mov	r0, r6
   11228:	f7ff fec8 	bl	10fbc <__malloc_unlock>
   1122c:	2000      	movs	r0, #0
   1122e:	e8bd 81f0 	ldmia.w	sp!, {r4, r5, r6, r7, r8, pc}
   11232:	4269      	negs	r1, r5
   11234:	4630      	mov	r0, r6
   11236:	f7fe ff43 	bl	100c0 <_sbrk_r>
   1123a:	3001      	adds	r0, #1
   1123c:	d012      	beq.n	11264 <_malloc_trim_r+0x90>
   1123e:	f8d8 2008 	ldr.w	r2, [r8, #8]
   11242:	f642 3324 	movw	r3, #11044	@ 0x2b24
   11246:	f2c0 0301 	movt	r3, #1
   1124a:	1b7f      	subs	r7, r7, r5
   1124c:	f047 0701 	orr.w	r7, r7, #1
   11250:	4630      	mov	r0, r6
   11252:	6057      	str	r7, [r2, #4]
   11254:	681a      	ldr	r2, [r3, #0]
   11256:	1b52      	subs	r2, r2, r5
   11258:	601a      	str	r2, [r3, #0]
   1125a:	f7ff feaf 	bl	10fbc <__malloc_unlock>
   1125e:	2001      	movs	r0, #1
   11260:	e8bd 81f0 	ldmia.w	sp!, {r4, r5, r6, r7, r8, pc}
   11264:	2100      	movs	r1, #0
   11266:	4630      	mov	r0, r6
   11268:	f7fe ff2a 	bl	100c0 <_sbrk_r>
   1126c:	f8d8 2008 	ldr.w	r2, [r8, #8]
   11270:	1a83      	subs	r3, r0, r2
   11272:	2b0f      	cmp	r3, #15
   11274:	ddd7      	ble.n	11226 <_malloc_trim_r+0x52>
   11276:	f043 0301 	orr.w	r3, r3, #1
   1127a:	6053      	str	r3, [r2, #4]
   1127c:	f241 53cc 	movw	r3, #5580	@ 0x15cc
   11280:	f2c0 0301 	movt	r3, #1
   11284:	f642 3124 	movw	r1, #11044	@ 0x2b24
   11288:	f2c0 0101 	movt	r1, #1
   1128c:	681b      	ldr	r3, [r3, #0]
   1128e:	1ac0      	subs	r0, r0, r3
   11290:	6008      	str	r0, [r1, #0]
   11292:	e7c8      	b.n	11226 <_malloc_trim_r+0x52>

Disassembly of section .text._free_r:

00011294 <_free_r>:
   11294:	2900      	cmp	r1, #0
   11296:	f000 8083 	beq.w	113a0 <_free_r+0x10c>
   1129a:	b5f8      	push	{r3, r4, r5, r6, r7, lr}
   1129c:	460c      	mov	r4, r1
   1129e:	4606      	mov	r6, r0
   112a0:	f7ff fe86 	bl	10fb0 <__malloc_lock>
   112a4:	f1a4 0508 	sub.w	r5, r4, #8
   112a8:	f854 3c04 	ldr.w	r3, [r4, #-4]
   112ac:	f241 52d8 	movw	r2, #5592	@ 0x15d8
   112b0:	f2c0 0201 	movt	r2, #1
   112b4:	f023 0101 	bic.w	r1, r3, #1
   112b8:	eb05 0c01 	add.w	ip, r5, r1
   112bc:	6897      	ldr	r7, [r2, #8]
   112be:	f8dc 0004 	ldr.w	r0, [ip, #4]
   112c2:	4567      	cmp	r7, ip
   112c4:	f020 0003 	bic.w	r0, r0, #3
   112c8:	f000 8087 	beq.w	113da <_free_r+0x146>
   112cc:	eb0c 0e00 	add.w	lr, ip, r0
   112d0:	f8cc 0004 	str.w	r0, [ip, #4]
   112d4:	07df      	lsls	r7, r3, #31
   112d6:	d434      	bmi.n	11342 <_free_r+0xae>
   112d8:	f854 4c08 	ldr.w	r4, [r4, #-8]
   112dc:	f102 0708 	add.w	r7, r2, #8
   112e0:	f8de 3004 	ldr.w	r3, [lr, #4]
   112e4:	1b2d      	subs	r5, r5, r4
   112e6:	4421      	add	r1, r4
   112e8:	f003 0301 	and.w	r3, r3, #1
   112ec:	68ac      	ldr	r4, [r5, #8]
   112ee:	42bc      	cmp	r4, r7
   112f0:	d067      	beq.n	113c2 <_free_r+0x12e>
   112f2:	f8d5 e00c 	ldr.w	lr, [r5, #12]
   112f6:	f8c4 e00c 	str.w	lr, [r4, #12]
   112fa:	f8ce 4008 	str.w	r4, [lr, #8]
   112fe:	2b00      	cmp	r3, #0
   11300:	f000 808a 	beq.w	11418 <_free_r+0x184>
   11304:	f041 0301 	orr.w	r3, r1, #1
   11308:	606b      	str	r3, [r5, #4]
   1130a:	f8cc 1000 	str.w	r1, [ip]
   1130e:	f5b1 7f00 	cmp.w	r1, #512	@ 0x200
   11312:	d223      	bcs.n	1135c <_free_r+0xc8>
   11314:	0948      	lsrs	r0, r1, #5
   11316:	08cb      	lsrs	r3, r1, #3
   11318:	2101      	movs	r1, #1
   1131a:	3301      	adds	r3, #1
   1131c:	4081      	lsls	r1, r0
   1131e:	6850      	ldr	r0, [r2, #4]
   11320:	4301      	orrs	r1, r0
   11322:	f852 0033 	ldr.w	r0, [r2, r3, lsl #3]
   11326:	6051      	str	r1, [r2, #4]
   11328:	eb02 01c3 	add.w	r1, r2, r3, lsl #3
   1132c:	3908      	subs	r1, #8
   1132e:	e9c5 0102 	strd	r0, r1, [r5, #8]
   11332:	f842 5033 	str.w	r5, [r2, r3, lsl #3]
   11336:	60c5      	str	r5, [r0, #12]
   11338:	4630      	mov	r0, r6
   1133a:	e8bd 40f8 	ldmia.w	sp!, {r3, r4, r5, r6, r7, lr}
   1133e:	f7ff be3d 	b.w	10fbc <__malloc_unlock>
   11342:	f8de 3004 	ldr.w	r3, [lr, #4]
   11346:	07db      	lsls	r3, r3, #31
   11348:	d52b      	bpl.n	113a2 <_free_r+0x10e>
   1134a:	f041 0301 	orr.w	r3, r1, #1
   1134e:	f5b1 7f00 	cmp.w	r1, #512	@ 0x200
   11352:	f844 3c04 	str.w	r3, [r4, #-4]
   11356:	f8cc 1000 	str.w	r1, [ip]
   1135a:	d3db      	bcc.n	11314 <_free_r+0x80>
   1135c:	0a4b      	lsrs	r3, r1, #9
   1135e:	f5b1 6f20 	cmp.w	r1, #2560	@ 0xa00
   11362:	d25b      	bcs.n	1141c <_free_r+0x188>
   11364:	098b      	lsrs	r3, r1, #6
   11366:	f103 0039 	add.w	r0, r3, #57	@ 0x39
   1136a:	f103 0438 	add.w	r4, r3, #56	@ 0x38
   1136e:	00c3      	lsls	r3, r0, #3
   11370:	18d0      	adds	r0, r2, r3
   11372:	58d3      	ldr	r3, [r2, r3]
   11374:	3808      	subs	r0, #8
   11376:	4298      	cmp	r0, r3
   11378:	d103      	bne.n	11382 <_free_r+0xee>
   1137a:	e069      	b.n	11450 <_free_r+0x1bc>
   1137c:	689b      	ldr	r3, [r3, #8]
   1137e:	4298      	cmp	r0, r3
   11380:	d004      	beq.n	1138c <_free_r+0xf8>
   11382:	685a      	ldr	r2, [r3, #4]
   11384:	f022 0203 	bic.w	r2, r2, #3
   11388:	428a      	cmp	r2, r1
   1138a:	d8f7      	bhi.n	1137c <_free_r+0xe8>
   1138c:	68d8      	ldr	r0, [r3, #12]
   1138e:	e9c5 3002 	strd	r3, r0, [r5, #8]
   11392:	6085      	str	r5, [r0, #8]
   11394:	4630      	mov	r0, r6
   11396:	60dd      	str	r5, [r3, #12]
   11398:	e8bd 40f8 	ldmia.w	sp!, {r3, r4, r5, r6, r7, lr}
   1139c:	f7ff be0e 	b.w	10fbc <__malloc_unlock>
   113a0:	4770      	bx	lr
   113a2:	4401      	add	r1, r0
   113a4:	f102 0708 	add.w	r7, r2, #8
   113a8:	f8dc 3008 	ldr.w	r3, [ip, #8]
   113ac:	42bb      	cmp	r3, r7
   113ae:	d046      	beq.n	1143e <_free_r+0x1aa>
   113b0:	f8dc 000c 	ldr.w	r0, [ip, #12]
   113b4:	60d8      	str	r0, [r3, #12]
   113b6:	6083      	str	r3, [r0, #8]
   113b8:	f041 0301 	orr.w	r3, r1, #1
   113bc:	606b      	str	r3, [r5, #4]
   113be:	5069      	str	r1, [r5, r1]
   113c0:	e7a5      	b.n	1130e <_free_r+0x7a>
   113c2:	2b00      	cmp	r3, #0
   113c4:	d164      	bne.n	11490 <_free_r+0x1fc>
   113c6:	e9dc 2302 	ldrd	r2, r3, [ip, #8]
   113ca:	4408      	add	r0, r1
   113cc:	60d3      	str	r3, [r2, #12]
   113ce:	609a      	str	r2, [r3, #8]
   113d0:	f040 0301 	orr.w	r3, r0, #1
   113d4:	606b      	str	r3, [r5, #4]
   113d6:	5028      	str	r0, [r5, r0]
   113d8:	e7ae      	b.n	11338 <_free_r+0xa4>
   113da:	4408      	add	r0, r1
   113dc:	07db      	lsls	r3, r3, #31
   113de:	d407      	bmi.n	113f0 <_free_r+0x15c>
   113e0:	f854 3c08 	ldr.w	r3, [r4, #-8]
   113e4:	1aed      	subs	r5, r5, r3
   113e6:	4418      	add	r0, r3
   113e8:	e9d5 1302 	ldrd	r1, r3, [r5, #8]
   113ec:	60cb      	str	r3, [r1, #12]
   113ee:	6099      	str	r1, [r3, #8]
   113f0:	f040 0301 	orr.w	r3, r0, #1
   113f4:	606b      	str	r3, [r5, #4]
   113f6:	f241 53d0 	movw	r3, #5584	@ 0x15d0
   113fa:	f2c0 0301 	movt	r3, #1
   113fe:	6095      	str	r5, [r2, #8]
   11400:	681b      	ldr	r3, [r3, #0]
   11402:	4283      	cmp	r3, r0
   11404:	d898      	bhi.n	11338 <_free_r+0xa4>
   11406:	f642 3354 	movw	r3, #11092	@ 0x2b54
   1140a:	f2c0 0301 	movt	r3, #1
   1140e:	4630      	mov	r0, r6
   11410:	6819      	ldr	r1, [r3, #0]
   11412:	f7ff fedf 	bl	111d4 <_malloc_trim_r>
   11416:	e78f      	b.n	11338 <_free_r+0xa4>
   11418:	4401      	add	r1, r0
   1141a:	e7c5      	b.n	113a8 <_free_r+0x114>
   1141c:	2b14      	cmp	r3, #20
   1141e:	d908      	bls.n	11432 <_free_r+0x19e>
   11420:	2b54      	cmp	r3, #84	@ 0x54
   11422:	d81c      	bhi.n	1145e <_free_r+0x1ca>
   11424:	0b0b      	lsrs	r3, r1, #12
   11426:	f103 006f 	add.w	r0, r3, #111	@ 0x6f
   1142a:	f103 046e 	add.w	r4, r3, #110	@ 0x6e
   1142e:	00c3      	lsls	r3, r0, #3
   11430:	e79e      	b.n	11370 <_free_r+0xdc>
   11432:	f103 005c 	add.w	r0, r3, #92	@ 0x5c
   11436:	f103 045b 	add.w	r4, r3, #91	@ 0x5b
   1143a:	00c3      	lsls	r3, r0, #3
   1143c:	e798      	b.n	11370 <_free_r+0xdc>
   1143e:	e9c2 5504 	strd	r5, r5, [r2, #16]
   11442:	f041 0301 	orr.w	r3, r1, #1
   11446:	e9c5 7702 	strd	r7, r7, [r5, #8]
   1144a:	606b      	str	r3, [r5, #4]
   1144c:	5069      	str	r1, [r5, r1]
   1144e:	e773      	b.n	11338 <_free_r+0xa4>
   11450:	10a4      	asrs	r4, r4, #2
   11452:	2101      	movs	r1, #1
   11454:	40a1      	lsls	r1, r4
   11456:	6854      	ldr	r4, [r2, #4]
   11458:	4321      	orrs	r1, r4
   1145a:	6051      	str	r1, [r2, #4]
   1145c:	e797      	b.n	1138e <_free_r+0xfa>
   1145e:	f5b3 7faa 	cmp.w	r3, #340	@ 0x154
   11462:	d806      	bhi.n	11472 <_free_r+0x1de>
   11464:	0bcb      	lsrs	r3, r1, #15
   11466:	f103 0078 	add.w	r0, r3, #120	@ 0x78
   1146a:	f103 0477 	add.w	r4, r3, #119	@ 0x77
   1146e:	00c3      	lsls	r3, r0, #3
   11470:	e77e      	b.n	11370 <_free_r+0xdc>
   11472:	f240 5054 	movw	r0, #1364	@ 0x554
   11476:	4283      	cmp	r3, r0
   11478:	bf97      	itett	ls
   1147a:	0c8b      	lsrls	r3, r1, #18
   1147c:	f44f 737e 	movhi.w	r3, #1016	@ 0x3f8
   11480:	f103 007d 	addls.w	r0, r3, #125	@ 0x7d
   11484:	f103 047c 	addls.w	r4, r3, #124	@ 0x7c
   11488:	bf8c      	ite	hi
   1148a:	247e      	movhi	r4, #126	@ 0x7e
   1148c:	00c3      	lslls	r3, r0, #3
   1148e:	e76f      	b.n	11370 <_free_r+0xdc>
   11490:	f041 0301 	orr.w	r3, r1, #1
   11494:	606b      	str	r3, [r5, #4]
   11496:	f8cc 1000 	str.w	r1, [ip]
   1149a:	e74d      	b.n	11338 <_free_r+0xa4>
